(dp0
S'"'
p1
F0.79433
sS'$'
p2
F0.50119
sS'&'
p3
F0.31623
sS'('
p4
F0.19953
sS'*'
p5
F0.12589
sS','
p6
F0.07943
sS'.'
p7
F0.05012
sS'0'
p8
F0.03162
sS'2'
p9
F0.01995
sS'4'
p10
F0.01259
sS'6'
p11
F0.00794
sS'8'
p12
F0.00501
sS':'
p13
F0.00316
sS'<'
p14
F0.002
sS'>'
p15
F0.00126
sS'@'
p16
F0.00079
sS'B'
p17
F0.0005
sS'D'
p18
F0.00032
sS'F'
p19
F0.0002
sS'H'
p20
F0.00013
sS'J'
p21
F8e-05
sS'!'
p22
F1.0
sS'#'
p23
F0.63096
sS'%'
p24
F0.39811
sS"'"
p25
F0.25119
sS')'
p26
F0.15849
sS'+'
p27
F0.1
sS'-'
p28
F0.0631
sS'/'
p29
F0.03981
sS'1'
p30
F0.02512
sS'3'
p31
F0.01585
sS'5'
p32
F0.01
sS'7'
p33
F0.00631
sS'9'
p34
F0.00398
sS';'
p35
F0.00251
sS'='
p36
F0.00158
sS'?'
p37
F0.001
sS'A'
p38
F0.00063
sS'C'
p39
F0.0004
sS'E'
p40
F0.00025
sS'G'
p41
F0.00016
sS'I'
p42
F0.0001
sS'K'
p43
F6e-05
s.