(dp0
S'ACAAATGCTTAGGGATTT'
p1
I1
sS'GCAACTTATCAGAAACGG'
p2
I1
sS'TGATGAACTAAGTCAACC'
p3
I1
sS'AGTTATGTCCCGCTTACA'
p4
I1
sS'CCGACTACCCTCCCGACT'
p5
I1
sS'AAGCTACCAGTTATATGG'
p6
I1
sS'TGCAAGAACGCGTACTTA'
p7
I1
sS'CACAAAAATACTGATAGC'
p8
I1
sS'GGTCAGTTCCATCAACAT'
p9
I1
sS'AAACGCGAACAATTCAGC'
p10
I1
sS'CTGCTCCTGTTGAGTTTA'
p11
I1
sS'TTCCAAGTATCGGCAACA'
p12
I1
sS'ACTGAACGGACTGGAAAC'
p13
I1
sS'AAAGACCAGGTAGATGCA'
p14
I1
sS'ACGATGAGGGACATAAAA'
p15
I1
sS'CTCTTCTCATATTGGCGC'
p16
I1
sS'CTCTACCATGAACAAAAT'
p17
I1
sS'GCCCGGCGTACGGGGAAG'
p18
I1
sS'ATCTTGGTGGCGAATAAG'
p19
I1
sS'TCTCGCCAAATGACGACT'
p20
I1
sS'AGCCAAGATGGGAAAGGT'
p21
I1
sS'GCTAATCAGGTTGTTTCT'
p22
I1
sS'GATGTTTATCCTTTGGAT'
p23
I2
sS'TAGCATAAGCAGCTTGCA'
p24
I1
sS'GCCGCTGATAAAGGAAAG'
p25
I1
sS'GCATATACCTGGTCTTTC'
p26
I1
sS'GCAGTAGGCGGAAAACGA'
p27
I2
sS'TCTAATGAACCGCATACT'
p28
I1
sS'CATAAAGTGCACCGCATG'
p29
I1
sS'CGCCAGCGATAACCGGAG'
p30
I1
sS'TAGCTTTAGGTGTCTGTA'
p31
I1
sS'CTATTTTCGTGATATTGG'
p32
I1
sS'TCTAGAAGGCCGCATCAT'
p33
I1
sS'CTGAGCTTAATGCTTGGG'
p34
I2
sS'GTAATCACGTTCTTGGTC'
p35
I2
sS'AACGGCGTCCATCTCGAA'
p36
I1
sS'TGCTCACAATGACAAATC'
p37
I1
sS'GCGCATGACAAGTAAAGG'
p38
I1
sS'TCTCTAGAGGGCCGCATC'
p39
I5
sS'GCCCCGAAGGGGACGAAA'
p40
I1
sS'AGCAGTCCAAATGTTTTT'
p41
I1
sS'AACAGGCCACAACCAACC'
p42
I1
sS'AGACTCCTTCTGTTGATA'
p43
I1
sS'TCATCTTGATTAAGCTCA'
p44
I1
sS'AAGTAATCACGTTCTTGG'
p45
I1
sS'GGTTACGACGCGACGCCG'
p46
I1
sS'CACTCGCGATTCAATCAT'
p47
I1
sS'TAGCTTTAAGCGGCTCAC'
p48
I1
sS'GGTGATAAGCAGGAGAAA'
p49
I1
sS'CCCTTCTGAATGTCACGC'
p50
I2
sS'GACCACCGCCCCGAAGGG'
p51
I1
sS'TCCGTACGTTTCCAGACC'
p52
I1
sS'CTCTTGCTGGTGGCGCCA'
p53
I1
sS'AATTAAAATTTTTACCGC'
p54
I1
sS'TTTTCATGCCTCCAAATC'
p55
I1
sS'TCAGGAACAAAGAAACGC'
p56
I1
sS'AAACACTGGTCATAATCA'
p57
I2
sS'CACCAGAAGGCGGTTCCT'
p58
I1
sS'GGTATCGTTATGCGCCTT'
p59
I1
sS'AACCATTTTTCGTCCCCT'
p60
I2
sS'GGCGACTTCACGCCAGAA'
p61
I1
sS'ATAACATCATGGTAACGC'
p62
I1
sS'AGAGGGCCGCATCATGTA'
p63
I2
sS'TAGACCAAACCATGAAAC'
p64
I2
sS'CGAAAAATGGTTTTTAGA'
p65
I1
sS'TTGGAGGCGGTCAAAAAG'
p66
I1
sS'TTGGATTTAACCGAAGAT'
p67
I1
sS'TTCCAGAAATTGTTCCAA'
p68
I1
sS'CAAATTCGACCTATCCTT'
p69
I1
sS'TGCCATACAAAACAGGGC'
p70
I1
sS'CAACGCGTCAGTTTTTGA'
p71
I1
sS'GGAGTGCTTAATCCAACT'
p72
I2
sS'GCCATGCTCAGGAACAAA'
p73
I2
sS'ATGCTTCCTCTGCTGGTA'
p74
I2
sS'CACCATCCTTCATGAACT'
p75
I1
sS'GAAAAATATCAACCACAC'
p76
I2
sS'GAGTGGTCGGCAGATTGC'
p77
I1
sS'CTGCTGGCGGAAAATGAG'
p78
I1
sS'CTGCTCGCGTTGCGTCTA'
p79
I1
sS'AAATATCCGAAAGTGTTA'
p80
I1
sS'TCAGGGTTAGGAACATTA'
p81
I1
sS'GGTATAAGGCGGTATCGT'
p82
I1
sS'GATTTCTTACCTATTAGT'
p83
I1
sS'AATCCTGACGGTTATTTC'
p84
I1
sS'AGTCAGATATGGACCTTG'
p85
I1
sS'TGCAGGCTGGCACTTCTG'
p86
I1
sS'TTTAAGAGCCTCGATACG'
p87
I1
sS'TCACCCATGCCTACAGTA'
p88
I1
sS'TTTATCGCTTCCATGACG'
p89
I1
sS'GCTGCATTTCCTGAGCTT'
p90
I1
sS'TCTAGAGGGCCGAATCAT'
p91
I1
sS'GCGACGCCGTTCAACCAG'
p92
I1
sS'GGGGATTGAGAAAGAGTA'
p93
I2
sS'AGTCCTTGACGGTATAAT'
p94
I1
sS'AATGCCAGCAATCTCTTT'
p95
I1
sS'CATCATGTAATTAGTTAT'
p96
I6
sS'CTCCAAATGAAGAAATAA'
p97
I1
sS'CGCCATCAACTAACGATT'
p98
I1
sS'AAAAATGATTGGCGTATC'
p99
I1
sS'GCCCATCGCAGTTCGCTA'
p100
I1
sS'CAGCTTCTTGGGAAGTAG'
p101
I1
sS'ACGGCAGCAATAAACTCA'
p102
I1
sS'TGGTAATAAGACGACCAA'
p103
I1
sS'TAATGTCAATAGATGTGG'
p104
I1
sS'TCTAGAGAGCCGCATCAT'
p105
I1
sS'ACCATCCAAAGGATAAAC'
p106
I1
sS'ATTACCAGCATTAACCGT'
p107
I1
sS'GAAGCGATAAAACTCTGC'
p108
I1
sS'GTTGGGGGAGCACATTGT'
p109
I1
sS'CGGTATAAGTCAAAGCAC'
p110
I1
sS'GCTTCTGGTGTGGTTGAT'
p111
I1
sS'CATAAAAAATAAAAATGT'
p112
I1
sS'TCAGGCATCCACGGCGCT'
p113
I2
sS'GTTGTCAGCGTCATAAGA'
p114
I1
sS'TCTAGAAGACCGCATCAT'
p115
I1
sS'AAAGCACCTTTAGCGTTA'
p116
I1
sS'CTTACCTATTAGTGGTTG'
p117
I1
sS'TGTTCAGAATCAGAATGA'
p118
I1
sS'AGCAAGGAAGCCAAGATG'
p119
I1
sS'TGAACAGCTTCTTGGGAA'
p120
I1
sS'GGTCAGGCATCCACGGCG'
p121
I1
sS'TTTATGGTACGCTGGACT'
p122
I1
sS'TGGGGCAATTCAATGAGC'
p123
I1
sS'TTGCAGGGGCTTCGGCCC'
p124
I1
sS'CTTCTCAGTAACAGATAC'
p125
I1
sS'AGGTAAACGCGAACAATT'
p126
I1
sS'GGCCGAAGCCCCTGCAAT'
p127
I1
sS'CTGCTGCATTTCCTGAGC'
p128
I1
sS'AGGACGTCAATAGTCACA'
p129
I1
sS'CATAATAAGCAATGACGG'
p130
I1
sS'ATGGCCGTCAACATACAT'
p131
I1
sS'ATTGCTGCCGTCATTGCT'
p132
I1
sS'ACCAACCATCAGCATGAG'
p133
I1
sS'TTTCGTATGTTTCTCCTG'
p134
I1
sS'GCATCATGTAATTAGTTA'
p135
I3
sS'TTACAGACACCTAAAGCT'
p136
I2
sS'ATTTAGTAGCGGTAAAGT'
p137
I1
sS'TGGTAGAAGTCGTCATTT'
p138
I1
sS'AGCAACAGCAGGTTTCCG'
p139
I1
sS'GACGACATTAGAAATATC'
p140
I1
sS'ATTATTGCCCGGCGTACG'
p141
I1
sS'ATCATGTAATTAGTTATG'
p142
I11
sS'GATGAGGGACATAAAAAG'
p143
I1
sS'GCGTCATGGAAGCGATAA'
p144
I1
sS'GTAAAGCTGATGGTATTG'
p145
I1
sS'CGGTATGGCTCTTCTCAT'
p146
I1
sS'AAAAGTAAAAATGTCTAC'
p147
I1
sS'AAACTTCTTAGACGAATC'
p148
I1
sS'CTTCATGAACTTAATCCA'
p149
I1
sS'TCGATACGCTCAAAGTCA'
p150
I1
sS'CCGCTACTAAATGCCGCG'
p151
I1
sS'ATAAAACGCCTCTAATCG'
p152
I1
sS'ACGCAAGCCTCAACGCAG'
p153
I1
sS'ATGTTGACGGCCATAAGG'
p154
I1
sS'TATCATAAAACGCCTCTA'
p155
I1
sS'GATGGTTGGTTTATCGTT'
p156
I1
sS'TTTGTCTAGGAAATAACC'
p157
I1
sS'CTAACCCTGATGAGGCCG'
p158
I1
sS'CTTAGTTCATCAGCAAAC'
p159
I1
sS'AGCATTTGGCGCATAATC'
p160
I1
sS'TCCGGTTATCGCTGGCGA'
p161
I1
sS'TGCTGGTGCTGATGCTTC'
p162
I1
sS'ACATCCTTCATAGAAATT'
p163
I1
sS'ATCATTTTTATCGAAGCG'
p164
I1
sS'AGAATACGAAAGACCAGG'
p165
I1
sS'CAAACATAAATCACCTCA'
p166
I3
sS'CAATCTTTCCAAGCAACA'
p167
I1
sS'TCTCGTGCTCGTCGCTGC'
p168
I1
sS'TCAATCATGACTTCGTGA'
p169
I1
sS'AAACTTAAACTTGTTAGA'
p170
I1
sS'GAAGTGCCAGCCTGCAAC'
p171
I1
sS'CTACCTGTAGGAAGTGTC'
p172
I1
sS'AGGAGCAGGAAAGCGAGG'
p173
I2
sS'ACGGCCTGTCTCATCATG'
p174
I1
sS'AATCCAAAACGGCAGAAG'
p175
I1
sS'CGACGCAATGGAGAAAGA'
p176
I1
sS'TCTACTGCTCGCGTTGCG'
p177
I2
sS'AGCCAACGTGAGAGTGTC'
p178
I2
sS'GCTTCCTCCTGAGACTGA'
p179
I1
sS'ATATCTAAACCAGTCCTT'
p180
I1
sS'TGGTCAATATAACCAGTA'
p181
I1
sS'GCTGAGGTTGACTTAGTT'
p182
I1
sS'CCTGATGAGGCCGTCCCT'
p183
I1
sS'TGAGCAGATTTGTCGTCA'
p184
I1
sS'CCTGTAGGAAGTGTCCGC'
p185
I2
sS'TGGCATTAACACCATCCT'
p186
I1
sS'GAAAGAGTAGAAATGCCA'
p187
I1
sS'TACCATTTCAACTACTCC'
p188
I1
sS'ATCTGCCATTCAAGGCTC'
p189
I1
sS'TGACGACAAATCTGCTCA'
p190
I1
sS'AGTAAACATAGTGCCATG'
p191
I1
sS'TGGTAACGCTGCATGAAG'
p192
I1
sS'AAAGGACGGTTGTCAGCG'
p193
I2
sS'TGGACTTGGTGGCAAGTC'
p194
I1
sS'CTGAATAGCAAAGCCTCT'
p195
I1
sS'GTACACGCAAGGTAAACG'
p196
I1
sS'TTGTTTCAGGGTTATTTG'
p197
I1
sS'CTCCTGTTGAGTTTATTG'
p198
I1
sS'TATCAGAAAAAAAGTTTG'
p199
I1
sS'AAGATGATTTCGATTTTC'
p200
I1
sS'AATATCCTTAAGAGGGCG'
p201
I2
sS'ACCCTCCCGACTGCCTAT'
p202
I1
sS'ACACTGGTCATAATCATG'
p203
I2
sS'TAGGAGCTAAAGAATGGA'
p204
I1
sS'AAGTGTCCGCATAAAGTG'
p205
I1
sS'TGGAAGGCGCTGAATTTA'
p206
I1
sS'TATTGGCTCTAATTTGTC'
p207
I1
sS'AAAGTTTGGATTGCTACT'
p208
I1
sS'CGTACGCCGGGCAATAAT'
p209
I1
sS'TCTAGAGGGCCGCATCAT'
p210
I3828
sS'TTCAAACTGGCGCCGAGC'
p211
I1
sS'TAGTAATCCACGCTCTTT'
p212
I1
sS'GGTAGCAAGCACATCACC'
p213
I1
sS'CTTCATGCAGCGTTACCA'
p214
I1
sS'ATTGCTGGAGGCCTCCAC'
p215
I1
sS'TAAGGCTGCTTCTGACGT'
p216
I1
sS'TAATAACCACCATCATGG'
p217
I1
sS'AAGTTGGATTAAGCACTC'
p218
I1
sS'TTGAAGGTACGTTGCAGG'
p219
I1
sS'ATGAGATTGAGGCTGGGA'
p220
I2
sS'AGGCGGCTTTTTGACCGC'
p221
I1
sS'CATGACAAGTAAAGGACG'
p222
I1
sS'TGGTACGCTGGACTTTGT'
p223
I1
sS'GCATTTTAGTAAGCTCTT'
p224
I1
sS'AGATATGGACCTTGCTGC'
p225
I1
sS'AATATCAACCACCCCAGA'
p226
I1
sS'ATAATTACCCCAAAAAGA'
p227
I1
sS'TCAGTTTTTGACAGAATC'
p228
I1
sS'CTATAGTTTTATTAATAT'
p229
I1
sS'CAATATCTGGTTGAACGG'
p230
I1
sS'CAGTAGTAATTCCTGCTT'
p231
I2
sS'CCAAGTCCAACCAAATCA'
p232
I1
sS'AACATAAACATTATTGCC'
p233
I1
sS'CCTCAATCTCATCTCTCT'
p234
I1
sS'CCACTGTTCACCATAAAC'
p235
I2
sS'CCTCATCAGGGTTAGGAA'
p236
I1
sS'GTGATATTGGTCGTATGG'
p237
I1
sS'GCGGTCAAAAAGCCGCCT'
p238
I1
sS'GCGAACAATTCAGCGGCT'
p239
I1
sS'GTCAACCATACCAGCAGA'
p240
I1
sS'GTACCGAGGCTAACCCTA'
p241
I2
sS'ATCATGGTGGCGAATAAG'
p242
I1
sS'TTTGCGTGACTATTTTCG'
p243
I1
sS'AACCCTGAAACAAATGCT'
p244
I1
sS'ATATCAGCACAAACAGAA'
p245
I1
sS'ATTCATCCATTAACTTCT'
p246
I1
sS'TCTAGAGGGCCGCAACAT'
p247
I1
sS'TCGTTTTTGACACTCTCA'
p248
I1
sS'TTCCTCTGCTGGTATGGT'
p249
I2
sS'TTCATGGTTTGGTCTAAC'
p250
I1
sS'TCAAAGCACCTTTAGCGT'
p251
I1
sS'CCAGCGTACCATAAACGC'
p252
I1
sS'ACATTAAATTTAACCTGA'
p253
I1
sS'CAATATCACGAAAATAGT'
p254
I1
sS'GGCGTACGGGGAAGGACG'
p255
I1
sS'ACTATCGGTATAAGTCAA'
p256
I1
sS'TGCTATCAGTATTTTTGT'
p257
I1
sS'TTGGTAAGTTGGATTAAG'
p258
I1
sS'ATAATGTTTATGTTGGTT'
p259
I1
sS'TTTTTGACGCACGTTTTC'
p260
I1
sS'CCACAAGCCTCAATAGCA'
p261
I1
sS'ACCTGGTCTTTCGTATTC'
p262
I1
sS'GAGTGTTCAAGATTGCTG'
p263
I1
sS'GAACCGCCTTCTGGTGAT'
p264
I1
sS'GGCGGAAAACGAACAAGC'
p265
I1
sS'TTTGCTGTGGTCTCCAGC'
p266
I1
sS'ATTCTGTCTTTTCGTATG'
p267
I1
sS'AAGCGGTCTGGAAACGTA'
p268
I1
sS'TATTGGTATCAGGGTTAA'
p269
I1
sS'AACGTGCCAAGCAAATTA'
p270
I1
sS'GATGAGGCCGTCCCTAGT'
p271
I1
sS'TTGACGGCCATAAGGCTG'
p272
I1
sS'GACTGCTCCGCTTCCTCC'
p273
I1
sS'CATGATTAAACTCCTAAG'
p274
I1
sS'GGCAACAGCTTTATCAAT'
p275
I1
sS'GGTAATTATACTCATCGC'
p276
I1
sS'TAAACGCGAACAATTCAG'
p277
I1
sS'CCGCATGGAAATGAAGAC'
p278
I2
sS'CTGTAGGCATGGGTGATG'
p279
I1
sS'AACAGTCGGGAGAGGAGT'
p280
I1
sS'ATAACCACCATCATGGCG'
p281
I1
sS'TACTTTTTATGTCCCTCA'
p282
I1
sS'CCTGCTTATCACCTTCTT'
p283
I1
sS'TAGACCACCGCCCCGAAG'
p284
I1
sS'CGGGGAAGGACGTCAATA'
p285
I1
sS'GGTACGCAATCGCCGCCA'
p286
I1
sS'CTTAACGCTAAAGGTGCT'
p287
I1
sS'GGGTATCCTACAAAGTCC'
p288
I1
sS'TAACCTGATTCAGCGAAA'
p289
I3
sS'AAAGCTCAGTCTCAGGAG'
p290
I1
sS'TCAACCATACCAGCAGAG'
p291
I1
sS'AATGCTGGTAATGGTGGT'
p292
I1
sS'ATCCTTAATACCTTTCTT'
p293
I1
sS'ACATTATTAATGGCGTCG'
p294
I1
sS'CAGCCTTATGGCCGTCAA'
p295
I1
sS'TCGCTGCGTTGAGGCTTG'
p296
I1
sS'CTTGCTGCTAAAGGTCTA'
p297
I1
sS'CGCCAGTTAAATAGCTTG'
p298
I1
sS'GTTACGACGCGACGCCGT'
p299
I1
sS'GGTATCCTACAAAGTCCA'
p300
I1
sS'ATAAAAGTCTGAAACATG'
p301
I1
sS'CTGTGACGACAAATCTGC'
p302
I4
sS'AATGGGAAGCCTTCAAGA'
p303
I1
sS'CGTTCTTATTACTCTTCT'
p304
I1
sS'TCAGTTCCATCAACATCA'
p305
I1
sS'TATTGCCCGGCGTACGGG'
p306
I1
sS'CGAGCGTCCGGTTAAAGC'
p307
I1
sS'GACTCAAAAAGAGATTGC'
p308
I1
sS'AGTATGCCCATCGCAGTT'
p309
I2
sS'CAAGGCCACGACGCAATG'
p310
I1
sS'ATTGGGATTATCATAAAA'
p311
I1
sS'TGGCGTCGAGCGTCCGGT'
p312
I1
sS'GCAAACGCAGAATCAGCG'
p313
I1
sS'CAACCTGATTAGCGGCGT'
p314
I1
sS'AAGCATCAGCACCAGCAC'
p315
I1
sS'CGTCAATAGTCACACAGT'
p316
I1
sS'GCGTGGATTACTATCTGA'
p317
I2
sS'TATCACCTTCTTGAAGGC'
p318
I1
sS'AGAGTCAATAGCAAGGCC'
p319
I2
sS'AGAGTCAATAGCCAGGCC'
p320
I1
sS'ATTGTTCGCGTTTACCTT'
p321
I1
sS'GGGTCGGCATCAAAAGCA'
p322
I1
sS'ATTTTCTGACGAGTAACA'
p323
I1
sS'TGCTTGTTTACGAATTAA'
p324
I1
sS'CGGCCTCATCAGGGTTAG'
p325
I1
sS'AGCGGCAGACTTGCCACC'
p326
I1
sS'ATTGGTATCAGGGTTAAT'
p327
I1
sS'TATGGAAGCCAAGCATTG'
p328
I1
sS'CAATGTGCTCCCCCAACT'
p329
I2
sS'TGTTGACGGCCATAAGGC'
p330
I2
sS'GGGACGGCCTCATCAGGG'
p331
I1
sS'CTGGTGTGGTTGATATTT'
p332
I1
sS'CCGAAGAAGCTGGAGTAA'
p333
I1
sS'ACCTGACTATTCCACTGC'
p334
I1
sS'AGATGGATACATCTGTCA'
p335
I1
sS'GGTATCAGGGTTAATCGT'
p336
I1
sS'TCTGCTCTTGCTGGTGGC'
p337
I1
sS'CCGTCTTCTCGTTCTCTA'
p338
I1
sS'TTTCTACTCTTTCTCAAT'
p339
I1
sS'AGAGATTGCCGAGATGCA'
p340
I1
sS'TCTAGAGGGCCGCAGCAT'
p341
I3
sS'ACTGCGATGGGCATACTG'
p342
I1
sS'TGCTCGCGTTGCGTCTAT'
p343
I1
sS'ATATCAACCACACCAGAA'
p344
I1
sS'TCTAGAGGGCTGGTTGAT'
p345
I1
sS'TATCCTTTGCAGTAGCGA'
p346
I1
sS'TATCCTTTGCAGTAGCGC'
p347
I1
sS'CATCTATTGACATTATGG'
p348
I1
sS'CTGCTTATCACCTTCTTG'
p349
I2
sS'CCGCCTCCGGTTGCATTA'
p350
I1
sS'TGGTTACAGTATGCCCAT'
p351
I1
sS'TTACCAAGCTGGGTTACG'
p352
I1
sS'CATCCTTCATAGAAATTT'
p353
I1
sS'TTACTCTTGCGCTTGTTC'
p354
I1
sS'TCCCTAGTTTTGTTTCTG'
p355
I1
sS'GCGATTCAATCATGACTT'
p356
I1
sS'TGAAACATGATTAAACTC'
p357
I1
sS'TCTAGAGGGCCNCATCAT'
p358
I1
sS'ATACCACTGACCCTCAGC'
p359
I1
sS'CTCCCGACTGCCTATGAT'
p360
I1
sS'CTTCCTACAGGTAGCGTT'
p361
I1
sS'AATCATGGTGGCGAATAA'
p362
I2
sS'TTACTCCAGCTTCTTCGG'
p363
I1
sS'TGAAGGTACGTTGCAGGC'
p364
I1
sS'CATGGCACTATGTTTACT'
p365
I1
sS'GCTCAAACGGCTGGTCAG'
p366
I1
sS'TGAGATGGCAGCAACGGA'
p367
I1
sS'GAGTCAAGTTACTGAACA'
p368
I1
sS'CTTCCTTGCTGGTCAGAT'
p369
I3
sS'GCTTAAAGCTACCAGTTA'
p370
I1
sS'AGATTCTGTCTTTTCGTA'
p371
I1
sS'ATAAACCAACCATCAGCA'
p372
I2
sS'AACATGATTAAACTCCTA'
p373
I1
sS'CGAACCATAAAAAAGCCT'
p374
I1
sS'GTAGCTTTAAGCGGCTCA'
p375
I1
sS'ACTGGCGGCGATTGCGTA'
p376
I1
sS'GCAGGTTTCCGAGATTAT'
p377
I1
sS'CACTTCCTACAGGTAGCG'
p378
I1
sS'CCATAACGAGCATCATCT'
p379
I1
sS'TGAGTAAGCATTTGGCGC'
p380
I1
sS'ACCAGCAAGAGCAGAAGC'
p381
I1
sS'AGATTGCGATAAACGGTC'
p382
I1
sS'TTACTTGTCATGCGCTCT'
p383
I1
sS'GCGAGGGTATCCTACAAA'
p384
I1
sS'TAACGTATTTAGCCACAT'
p385
I1
sS'CCTGAATGAGCTTAATAG'
p386
I1
sS'TACCACTGACCCTCAGCA'
p387
I1
sS'CTTATGCTAATTTGCATA'
p388
I1
sS'CCCGACGACCAAAATTAG'
p389
I1
sS'AAAAGTCAGATATGGACC'
p390
I1
sS'AATATAACGTTGACGATG'
p391
I1
sS'GCCGATACTTGGAACAAT'
p392
I1
sS'CAAGATAATCACGAGTAT'
p393
I1
sS'CAATATAACCAGTAGTGT'
p394
I1
sS'GCTGGTGCTGATGCTTCC'
p395
I1
sS'CGCAATCGCCGCCAGTTA'
p396
I1
sS'GCTTTTTCACGTTCTTGT'
p397
I1
sS'ACGTTTTGGCGGCGCAAC'
p398
I1
sS'AGGGATTTTATTGGTATC'
p399
I1
sS'TTATGACGCTGACAACCG'
p400
I1
sS'GATTCAGTACCTTAACGC'
p401
I1
sS'TCATGGTAAGGCTGCATG'
p402
I1
sS'ATAAGGCTGCTTCTGACG'
p403
I1
sS'GTTATGTCACGCTTACAT'
p404
I2
sS'TAGACTCCTTCTGTTGAT'
p405
I1
sS'GCACACAAAAATACTGAT'
p406
I1
sS'GAATTTACGGAAAACATT'
p407
I1
sS'TGCAACAACTGAACGGAC'
p408
I1
sS'CTTTCCCATCTTGGCTTC'
p409
I1
sS'TTTGGCCTCTATTAAGCC'
p410
I1
sS'TTTACCGCTACTAAATGC'
p411
I2
sS'TTTAGAGAACGAGAAGAC'
p412
I1
sS'ATGGTGGTTATTATACCG'
p413
I1
sS'TTGTGGCCTGTTGATGCT'
p414
I1
sS'GAGATTCAGTACCTTAAC'
p415
I1
sS'GAAGGCGCTGAATTTACG'
p416
I1
sS'TCAGCCAACGTGAGAGTG'
p417
I2
sS'AAAGTCAAAATAATCAGC'
p418
I1
sS'CATCATGGCGACCATCCA'
p419
I2
sS'GACATTTTAAAAGAGCGT'
p420
I1
sS'TGTAATTAGTTATGTCAC'
p421
I9
sS'CCACCTGTTTTACAGACA'
p422
I1
sS'TTTCTTCATTTGGAGGTA'
p423
I1
sS'GACGGCAGCAATAAACTC'
p424
I1
sS'GTGACGATGAGGGACATA'
p425
I1
sS'GCCATATAACTGGTAGCT'
p426
I1
sS'CCTACAAAGTCCAGCGTA'
p427
I1
sS'GATAACCGGAGTAGTTGA'
p428
I1
sS'GCCGCATCATGTAATTAG'
p429
I1
sS'CATAGCCAGATGCCCAGA'
p430
I1
sS'CTGACCAGCAAGGAAGCC'
p431
I1
sS'GCAAAACTGCGTAACCGT'
p432
I2
sS'TTCGCTGAATCAGGTTAT'
p433
I1
sS'GGACGACCAGGGCGAGCG'
p434
I1
sS'AAGCTGTTCAGAATCAGA'
p435
I1
sS'ACCAAATCAAGCAACTTA'
p436
I1
sS'TTATTGCCCGGCGTACGG'
p437
I1
sS'TGGATGGTCGCCATGATG'
p438
I1
sS'TAATGCCACTCCTCTCCC'
p439
I1
sS'CGTATGCCGCATGACCTT'
p440
I1
sS'TCTAGAGGGCTACATCAT'
p441
I1
sS'CATAAGGCTGCTTCTGAC'
p442
I1
sS'ATTGCATTCAGATGGATA'
p443
I1
sS'CAGGATTGACACCCTCCC'
p444
I1
sS'GTTAACAGTCGGGAGAGG'
p445
I1
sS'GGTCGTCAGCCAACGTGA'
p446
I1
sS'AAAGTGTTAACTTCTGCG'
p447
I1
sS'GCTGAATTTACGGAAAAC'
p448
I1
sS'GCCGAGGGTCGCAAGGCT'
p449
I1
sS'ATGCCCATCGCAGTTCGC'
p450
I1
sS'CGGAGCAGTCCAAATGTT'
p451
I1
sS'ACCACCATCATGGCGACC'
p452
I1
sS'GTTTCTATGTGGCTAAAT'
p453
I1
sS'TCTTTTCGTATGCAGGGC'
p454
I1
sS'GCCACAACCAACCAGAAC'
p455
I1
sS'GAACGGCGTCGCGTCGTA'
p456
I1
sS'TCAGAATCAGAATGAGCC'
p457
I1
sS'AGTTGGGGGAGCACATTG'
p458
I1
sS'TCAAATTTATGCGCGCTT'
p459
I1
sS'TCGATTTTCTGACGAGTA'
p460
I1
sS'GTTAAATTTAATGTGACC'
p461
I1
sS'CGCATGACCTTTCCCATC'
p462
I1
sS'TAAAATGTCAACAAGAGA'
p463
I1
sS'TAGGGATTTTATTGGTAT'
p464
I1
sS'CTCCTTCTGCACGTAATT'
p465
I2
sS'GCTGCTGCATTTCCTGAG'
p466
I1
sS'ACGACGTTTGGTCAGTTC'
p467
I2
sS'CCTGTTGAGTTTATTGCT'
p468
I1
sS'GCATCAACAGGCCACAAC'
p469
I1
sS'GAAATATCCGAAAGTGTT'
p470
I1
sS'TGACCAAATCAAAGAAAT'
p471
I1
sS'TAACGATACCACTGACCC'
p472
I1
sS'GGCCATTAGCTGTACCAT'
p473
I1
sS'CCACCGGAGGCGGCTTTT'
p474
I1
sS'TTAAAATGTCAACAAGAG'
p475
I1
sS'CAATATCGGTATAAGTCA'
p476
I1
sS'GTATGTTGACGGCCATAA'
p477
I1
sS'CAGGCTCATGCTGATGGT'
p478
I1
sS'TCTAGAGGCGCGCATCAC'
p479
I1
sS'ACGACGCGACGCCGTTCA'
p480
I1
sS'CGCAATGGAGAAAGACGG'
p481
I1
sS'AAAACGAACAAACGCAAG'
p482
I1
sS'TCAGAATGAGCCGCAACT'
p483
I1
sS'CTTTCTCCATTGCGTCGT'
p484
I1
sS'CAAGGAAGCCAAGATGGG'
p485
I1
sS'GACCGCCCTCGTGCTCGT'
p486
I1
sS'TTTTATCGAAGCGCGCAT'
p487
I1
sS'CAGGAAAGCGAGGGTATC'
p488
I1
sS'TCGGCGTTATAACCTCAC'
p489
I1
sS'AGGATAAACATCATAGGC'
p490
I1
sS'AGTTCGATAATGGTGATA'
p491
I1
sS'GCTAGAGGGCCGCATCAT'
p492
I2
sS'AGGATGTTTTCCGTTCTG'
p493
I1
sS'TCTAGCAGACCGCATAAA'
p494
I1
sS'AGAAGGCGGTTCCTGAAT'
p495
I1
sS'GACGGTATAATAACCACC'
p496
I1
sS'CTTTAATAACCTGATTCA'
p497
I1
sS'TGTATCCATCTGAATGCA'
p498
I1
sS'AATGCTACAATGTGCTCC'
p499
I1
sS'TTTTGTTTCTGGTGCTAT'
p500
I1
sS'CATACTGACCAAGAACGT'
p501
I1
sS'CATTAACTTCTCAGTAAC'
p502
I2
sS'CTCAAATTTATGCGCGCT'
p503
I1
sS'TACGGTCAGGCATCCACG'
p504
I1
sS'ACTGCTGGCGGAAAATGA'
p505
I2
sS'CATGGCGACCATCCAAAG'
p506
I1
sS'ACAACCAACCAGAACGTG'
p507
I1
sS'TTATCAGCGGCAGACTTG'
p508
I1
sS'GAGGCGGTCAAAAAGCCG'
p509
I1
sS'GCATCACCCATGCCTACA'
p510
I1
sS'TATGCTAATTTGCATACT'
p511
I1
sS'CTCTGCAGGTTGGATACG'
p512
I1
sS'AACAGGAGCAGGAAAGCG'
p513
I1
sS'CCCCCACATCCGCTCTAA'
p514
I2
sS'GCCCTCTTAAGGATATTC'
p515
I1
sS'TGCTGCTGCATTTCCTGA'
p516
I2
sS'GGCTTCCCATTCATTCAG'
p517
I1
sS'TAGTTATGTCACGCTTAC'
p518
I2
sS'CGCTCGACGCCATTAATA'
p519
I1
sS'TGCAAGCTGCTTAAGCTA'
p520
I1
sS'AATGAAGAAATAACATCA'
p521
I1
sS'AACAGGTGCCGAAGAAGC'
p522
I1
sS'CCGTCTTTCTCCATTGCG'
p523
I1
sS'TCTCGCGGGCCGCCTCCT'
p524
I1
sS'CAAATTAGCATAAGCAGC'
p525
I1
sS'TGGCCTTATGGTTACAGT'
p526
I2
sS'CGCTACTGCAAAGGATAT'
p527
I1
sS'GAACACGACCAGAAAACT'
p528
I1
sS'GCGCAGCTCGAGAAGCTC'
p529
I1
sS'CATCTTGATTAAGCTCAT'
p530
I1
sS'AGGCTTTTTTATGGTTCG'
p531
I1
sS'CCAAGATGGGAAAGGTCA'
p532
I1
sS'CACGTTCTTGGTCAGTAT'
p533
I1
sS'AAAGCCTCTACGCGATTT'
p534
I1
sS'ACCGTCAAGGACTGTGTG'
p535
I1
sS'GTAATTAGTTATGTCACG'
p536
I3
sS'AGCGGCAAAAATTAAAAT'
p537
I1
sS'TTAGGGTCAACGCTACCT'
p538
I1
sS'AGAACCATACGACCAATA'
p539
I1
sS'ATGGTATTGGCTCTAATT'
p540
I1
sS'CGCTTCGGCGTTATAACC'
p541
I1
sS'TTAACATTTCAACTACCC'
p542
I1
sS'CGCGTTTACCTTGCGTGT'
p543
I2
sS'TCTAGAGGGCCGCATAAT'
p544
I2
sS'ATCCACGCTCTTTTAAAA'
p545
I1
sS'TCTAGAGGGCCGCAACCT'
p546
I1
sS'TGGTTCGCTTTGAGTCTT'
p547
I1
sS'AGAAGTGGCTTAATATGC'
p548
I1
sS'GGTGTCAATCCTGACGGT'
p549
I1
sS'AGAAGTGCCAGCCTGCAA'
p550
I1
sS'TTATTGCTGCCGTCATTG'
p551
I1
sS'GAAAAAAAGTTTGAATTA'
p552
I1
sS'ACGAGCGCCTTTACGCTT'
p553
I2
sS'CCTGTAATTAGTTATGTC'
p554
I1
sS'ATCCTTTCCTTTATCAGC'
p555
I1
sS'CGGAGAGCGCCAACGGCG'
p556
I1
sS'TTTTGACACTCTCACGTT'
p557
I1
sS'GAGGGCCGCATCATGTAA'
p558
I1
sS'ATGCCGCTTTTCTTGGCA'
p559
I1
sS'CGACAGCTTGGTTTTTAG'
p560
I2
sS'CTTGCGAGTCATTTCTTT'
p561
I1
sS'ATTAAGTTTAACCTGACA'
p562
I1
sS'TTCTACCACATCTATTGA'
p563
I1
sS'GCGCAGGAAACACTGACG'
p564
I1
sS'CGTCATTGCTTATTATGT'
p565
I1
sS'TAACCCTAATGAGCTTAA'
p566
I1
sS'AGTCAAAATAATCAGCGT'
p567
I1
sS'CGATACGCTCAAAGTCAA'
p568
I1
sS'TACCGCCAGCAATAGCAC'
p569
I1
sS'ATACGCTCAAAGTCAAAA'
p570
I1
sS'CTAACGATTCTGTCAAAA'
p571
I1
sS'GACTCAAAGCGAACCAAA'
p572
I1
sS'GTGCAGAAGGAGTGATGT'
p573
I1
sS'GCGGCTCACCTTTAGCAT'
p574
I1
sS'GATACCAATAAAATCCCT'
p575
I1
sS'AAAAAAAAAAAAAAAAAA'
p576
I1
sS'AGAGATTATTTGTCTCCA'
p577
I1
sS'GACCAGGGCGAGCGCCAG'
p578
I2
sS'ATCCTGACGGTTATTTCC'
p579
I1
sS'GTTTAAGATTGCTGAGGG'
p580
I1
sS'GTCGCAAGGCTAATGATT'
p581
I1
sS'AATGTTTATAGGTCTGTT'
p582
I1
sS'CGGCCTGTCTCATCATGG'
p583
I1
sS'GCCTCCGGTGGCATTCAA'
p584
I1
sS'AGTGGACTGCTGGCGGAA'
p585
I1
sS'CGGCAGATTGCGATAAAC'
p586
I1
sS'TTGCAGTGGAATAGTCAG'
p587
I1
sS'TAATCGGTCGTCAGCCAA'
p588
I2
sS'AGAAAACCACCATTACCA'
p589
I1
sS'GGTATTGATAAAGCTGTT'
p590
I1
sS'AGTTTATTGCTGCCGTCA'
p591
I1
sS'GCAATACCGCCAGCAATA'
p592
I1
sS'TGTTTACGAATTAAATCG'
p593
I1
sS'ACGCCAGAATACGAAAGA'
p594
I1
sS'GTCAACATTCAAACGGCC'
p595
I1
sS'ATAGAAATTTCACGCGGC'
p596
I1
sS'AATCCGCGGCATTTAGTA'
p597
I1
sS'TAGGATACCCTCGCTTTC'
p598
I1
sS'TCTGTTGATAAGCAAGCA'
p599
I1
sS'ACCTTGCGTGTACGCGCA'
p600
I1
sS'TGAAGTAATCACGTTCTT'
p601
I1
sS'CTTTAGTCGCACTTGGCG'
p602
I1
sS'AAAAATGTCTACAGTAGA'
p603
I1
sS'CCAAATGAAGAAATAACA'
p604
I1
sS'GCAGAAGTGCCAGCCTGC'
p605
I1
sS'GCAGGAAACACTGACGTT'
p606
I1
sS'AGATTAGAGCGCATGACA'
p607
I1
sS'TCACGCTGATTATTTTGA'
p608
I1
sS'GACGCAGAAGTTAACACC'
p609
I1
sS'GCCGAAGCCCCTGCAATT'
p610
I2
sS'CGGCGAGCGGGGCAGGAC'
p611
I1
sS'CATTGCATTCAGATGGAT'
p612
I1
sS'CACACCAGAAGCAGCATC'
p613
I1
sS'ACAGGCAAAAAATTTAGG'
p614
I1
sS'GATTGAGGCTGGGAAAAG'
p615
I1
sS'TTTTGATGCCGAACCTAA'
p616
I1
sS'TTGGACTGCTCCGCTTCC'
p617
I1
sS'CGGTACGGTCAGGCATCC'
p618
I2
sS'GAGGGCGTTCAGCAGCCA'
p619
I1
sS'ATAACCTCACACTCAATC'
p620
I1
sS'AAACGCGGCACAGAATGT'
p621
I1
sS'ATCATGTAATTAGTTTTG'
p622
I1
sS'TAGATATTCAAATAACCC'
p623
I1
sS'TATTGCTGGCGGTATTGC'
p624
I1
sS'GTGTTAACAGTCGGGAGA'
p625
I1
sS'GCACTCCGTGGACAGATT'
p626
I1
sS'GTACCATAAACGCAAGCC'
p627
I1
sS'TTATGTCACGCTTACATT'
p628
I203
sS'TCAAGATGATGCTCGTTA'
p629
I1
sS'AAGGATGTTTTCCGTTCT'
p630
I1
sS'GACCAAGAACGTGATTAC'
p631
I1
sS'CTCTAGAGGGCCGCATCA'
p632
I10
sS'TTGTTATCGGTAGCAAGC'
p633
I1
sS'GACGCTGACAACCGTCCT'
p634
I1
sS'GAACTGACCAAACGTCGT'
p635
I1
sS'AATAATCAGTGTGACATC'
p636
I1
sS'AAACAGGGTCGCCAGCAA'
p637
I1
sS'CTGGCATTCAGTCGGCGA'
p638
I1
sS'TTGAAGCAGAACGCAAAA'
p639
I1
sS'GGTATGTAGGTGGTCAAC'
p640
I1
sS'GAAAAATGGTTTTTAGAG'
p641
I1
sS'AGTGTCCGCATAAAGTGC'
p642
I2
sS'CACGTTCTGGTTGGTTGT'
p643
I2
sS'AAATCGAAATCATCTTCG'
p644
I2
sS'GACGAGCACGAGAGCGGT'
p645
I1
sS'GCTTCGCTTGGTCAACCC'
p646
I1
sS'CTACTGGTTATATTGACC'
p647
I1
sS'GTCTTTGGTATGTAGGTG'
p648
I1
sS'CGTACCCGACGACCAAAA'
p649
I1
sS'AAGTAGCGACAGCTTGGT'
p650
I1
sS'TAGTCACACAGTCCTTGA'
p651
I1
sS'GGCACGTTCGTCAAGGAC'
p652
I1
sS'TGCCTGACCGTACCGAGG'
p653
I1
sS'TATCGAACTCAACGCCCT'
p654
I2
sS'CAAAAATACTGATAGCAG'
p655
I1
sS'CGAGTCATTTCTTTGATT'
p656
I1
sS'CGCATCATGTAATTAGTT'
p657
I8
sS'CTTGGTCAGTATGCAAAT'
p658
I1
sS'GCCTGAGTATGGTACAGC'
p659
I1
sS'TTTTTCATGGTATTGATA'
p660
I1
sS'AAATGTTTTTGAGATGGC'
p661
I1
sS'TCGCGTAGAGGCTTTGCT'
p662
I1
sS'ATCGGTAGCAAGCACATC'
p663
I1
sS'AGCGCCTTCCATGATGAG'
p664
I1
sS'TGACGTTCGTGATGAGTT'
p665
I1
sS'AGCTCAAACGGCTGGTCA'
p666
I2
sS'CCGCTCTCGTGCTCGTCG'
p667
I1
sS'CGAACTGCGATGGGCATA'
p668
I1
sS'GCCACTCCTCTCCCGACT'
p669
I1
sS'CTATCAGTATTTTTGTGT'
p670
I1
sS'GTCCTTCCCCGTACGCCG'
p671
I1
sS'TAAAGGAAAGGATACTCG'
p672
I1
sS'AGAGATGAGATTGAGGCT'
p673
I1
sS'GGTCAAAAAGCCGCCTCC'
p674
I1
sS'AGTGTTTCCTGCGCGTAC'
p675
I2
sS'TTCAGCGTTTGATGAATG'
p676
I1
sS'TGGTTATATTGACCATGC'
p677
I1
sS'AGGCCACGTATTTTGCAA'
p678
I1
sS'CTAAAGAATGGAACAACC'
p679
I1
sS'AACGGAAACCATAACGAG'
p680
I1
sS'AACTTCGGGATGAAAATG'
p681
I1
sS'GCGTCGAGCGTCCGGTTA'
p682
I1
sS'GTTTGAGCTTGAGTAAGC'
p683
I1
sS'ATTAGTTATGTCACGCTT'
p684
I4
sS'CATTAGAAATATCCTTTG'
p685
I1
sS'ATCAACAGAAGGAGTCTA'
p686
I1
sS'GTTCCATCAACATCATAG'
p687
I1
sS'AAGCTGGAGTAACAGAAG'
p688
I1
sS'AGACGGTTACGCAGTTTT'
p689
I1
sS'TCTAGAGGGACGCCTCAT'
p690
I1
sS'AGCCGTTGCGAGGTACTA'
p691
I1
sS'CTGGCGACCCTGTTTTGT'
p692
I2
sS'CAGTCTCAGGAGGAAGCG'
p693
I1
sS'ACTCCTTCTGCACGTAAT'
p694
I1
sS'TGCAAATCACCAGAAGGC'
p695
I3
sS'GGAGAAACATACGAAGGC'
p696
I2
sS'AAACTATCAAAATATAAC'
p697
I1
sS'TAACTTCTGCGTCATGGA'
p698
I1
sS'GACGCAATGGAGAAAGAC'
p699
I1
sS'CCATACAAAACAGGGTCG'
p700
I1
sS'ATTTGCATACTGACCAAG'
p701
I1
sS'GGTGCACTTTATGCGGAC'
p702
I1
sS'ATTCAAACGGCCTGTCTC'
p703
I2
sS'TTTGAATATTAGACATAA'
p704
I1
sS'AGAAAACCTACCGCGCTT'
p705
I2
sS'ACTTCTTAGACGAATCAC'
p706
I1
sS'TCACGCTTACATTCACGC'
p707
I1
sS'AGCTGCTTATGCTAATTT'
p708
I1
sS'TTAGGGATTTTATTGGTA'
p709
I1
sS'CTGGTATTAAATCTGCCA'
p710
I1
sS'ACATACCAAAGACGAGCG'
p711
I1
sS'GGTTTCTATGTGGCTAAA'
p712
I1
sS'GCCGTTGCGAGGTACTAA'
p713
I1
sS'CTTCGCTTGGTCAACCCC'
p714
I2
sS'TCGCCAGCAATATCGGTA'
p715
I2
sS'CGAATCACCAGAACGGAA'
p716
I2
sS'GGAAGTGTCCGCATAAAG'
p717
I1
sS'TGATAAAGGAAAGGATAC'
p718
I1
sS'ATCGGTCGTCAGCCAACG'
p719
I1
sS'TAACTGGTAGCTTTAAGC'
p720
I1
sS'GCTGGTCAGTATTTTACC'
p721
I1
sS'ACTAGAGCAACACACCAG'
p722
I1
sS'CGACCAGGGCGAGCGCCA'
p723
I1
sS'CCTTGACGAACGTGCCAA'
p724
I2
sS'ACGAATCACCAGAACGGA'
p725
I2
sS'CAGCACGCTCCCAAGCAT'
p726
I1
sS'TGGATTAAGCACTCCGTG'
p727
I1
sS'TATATAGGGCCGCATTAT'
p728
I1
sS'TCAGTACCTTAACGCTAA'
p729
I1
sS'AAAAGTATCAACCACACC'
p730
I1
sS'TAAAGTTAGACCAAACCA'
p731
I1
sS'ATAAAGGAAAGGATACTC'
p732
I1
sS'ATTCCTGCTTTATCAAGA'
p733
I1
sS'AGCTTCTCGAGCTGCGCA'
p734
I1
sS'TACGGGGAAGGACGTCAA'
p735
I1
sS'TGGTAAGTTGGATTAAGC'
p736
I2
sS'TCATAGAAATTTCACGCG'
p737
I2
sS'AACTCATCACGAACGTCA'
p738
I1
sS'GCATCCACGGCGCTTTAA'
p739
I1
sS'GGCCGCATCATGTAATTA'
p740
I2
sS'CGGCAGCAATAAACTCAA'
p741
I1
sS'GAATGGCAGATTTAATAC'
p742
I1
sS'TTAATAGAGTCCAAAGCG'
p743
I1
sS'AGCACTCCGTGGACAGAT'
p744
I1
sS'CGCGGCGGCAAGTTGCCA'
p745
I1
sS'TCATTAGGGTTAGCCTCG'
p746
I1
sS'TAGAGCGCATGACAAGTA'
p747
I1
sS'ACGTATTTAGCCACATAG'
p748
I1
sS'TCTGCCGCTGATAAAGGA'
p749
I1
sS'AGATGTGGTAGAAGTCGT'
p750
I1
sS'GGAACCGAAGAAGACTCA'
p751
I2
sS'AAAGGTAAAAAACGTTCT'
p752
I1
sS'GGTCCATATCTGACTTTT'
p753
I2
sS'AAGAAGGTGATAAGCAGG'
p754
I1
sS'CGGTCGTCAGCCAACGTG'
p755
I1
sS'GTCAGTAAGAACGTCAGT'
p756
I1
sS'GTGCCGAAGAAGCTGGAG'
p757
I1
sS'GAAACGCGGCACAGAATG'
p758
I1
sS'CGGTTAAAGCCGCTGAAT'
p759
I1
sS'TACCGAGGCTAACCCTAA'
p760
I1
sS'GCGGCGATTGCGTACCCG'
p761
I1
sS'TACTTCATGCAGCGTTAC'
p762
I1
sS'TCTTCCAAGAGCTTGATG'
p763
I1
sS'GGAAAACGAACAAGCGCA'
p764
I1
sS'TTTTGAGGGCCGGAGAAT'
p765
I1
sS'CTTGCGACCCTCGGCAGC'
p766
I1
sS'TATGGGTCTGCAAGCTGC'
p767
I2
sS'AATCACCAGAAGGCGGTT'
p768
I1
sS'TGAATGGGAAGCCTTCAA'
p769
I1
sS'TGTTATCGGTAGCAAGCA'
p770
I1
sS'TTAATTGCAGGGGCTTCG'
p771
I1
sS'ACCGTCTTTCCAGAAATT'
p772
I1
sS'GAGCAGATTTGTCGTCAC'
p773
I1
sS'GTAGCGCCAATATGAGAA'
p774
I1
sS'AGGACTGGTTTAGATATG'
p775
I1
sS'GCTTTTTGACCGCCTCCA'
p776
I1
sS'GCTGCTTCTGACGTTCGT'
p777
I1
sS'GCGCATAACGATACCACT'
p778
I1
sS'TCCAGAGGGCCGCATCAT'
p779
I1
sS'CGAGGGTATCCTACAAAG'
p780
I2
sS'GCCACCAGCAAGAGCAGA'
p781
I1
sS'CTAGAGGGCCGCATCATG'
p782
I37
sS'TGTATGTTTTCATGCCTC'
p783
I1
sS'CCCCGTACGCCGGGCAAT'
p784
I1
sS'AACGGACTGGAAACACTG'
p785
I1
sS'GATGCTGCTTCTGGTGTG'
p786
I1
sS'GAAATGCAGCAGCAAGAT'
p787
I1
sS'AGATGCCCAGAGATTAGA'
p788
I1
sS'ATTGCTTTTGATGCCGAC'
p789
I1
sS'CAGAAAGAGATTGCCGAG'
p790
I1
sS'ACTGAACAATCCGTACGT'
p791
I1
sS'AAAATCGAAATCATCTTC'
p792
I1
sS'TGCCAATTCATCCATTAA'
p793
I1
sS'CTAAAGGGCCGCAACATG'
p794
I1
sS'TTTCGTATGCAGGGCGTT'
p795
I1
sS'ACAGTGAATTAAGTTCAC'
p796
I1
sS'AAAACGAACAAGCGCAAG'
p797
I1
sS'TAGCCTTGCGACCCTCGG'
p798
I1
sS'AAAGGACTTCTTGAAGGT'
p799
I1
sS'CACCATGATTATGACCAG'
p800
I1
sS'CTTATACCGATATTGCTG'
p801
I1
sS'TCTAGAGGGCCGCATCCT'
p802
I2
sS'CCTAGAGGGCCGCATCGA'
p803
I1
sS'CCTAACCCTGATGAGGCC'
p804
I1
sS'GTCCTTTACCAGCTGTAG'
p805
I1
sS'GAAAACCACCATTACCAG'
p806
I2
sS'TGACGGGATGAACATAAT'
p807
I1
sS'GTATTTTGCAAGCTATTT'
p808
I1
sS'CATGAACCTTATTGCACG'
p809
I1
sS'GGAGAGGAGTGGCATTAA'
p810
I1
sS'TTAGTTATGTCACGCTTA'
p811
I8
sS'CCATCGCAGTTCGCTACA'
p812
I1
sS'CGGCAAGTTGCCATACAA'
p813
I1
sS'GGGATTATCATAAAACGC'
p814
I1
sS'CGAGGCTAACCCTAATGA'
p815
I1
sS'TTATCGAACTCAACGCCC'
p816
I1
sS'TGTTACTCGTCAGAAAAT'
p817
I1
sS'GCCTGAATGAGCTTAATA'
p818
I1
sS'TAAAATACTGACCAGCCG'
p819
I1
sS'TGCCAGCCTGCAACGTAC'
p820
I1
sS'TCCATAATAGACGCAACG'
p821
I1
sS'TTCATAGAAATTTCACGC'
p822
I1
sS'GCTAAAGGTGAGCCGCTT'
p823
I1
sS'ACAGCATCGGACTCAGAT'
p824
I1
sS'ACAGTATGCCCATCGCAG'
p825
I1
sS'CCTTGCTGCTAAAGGTCT'
p826
I1
sS'TTAACCGTCAAACTATCA'
p827
I1
sS'TTCGTGATATTGGTCGTA'
p828
I2
sS'CCTTTAGTACCTCGCAAC'
p829
I1
sS'CGACGCTCACGAGGGCGG'
p830
I1
sS'ATGAGCCGCAACTTCGGG'
p831
I1
sS'CTGATTCAGCGAAACCAA'
p832
I1
sS'ACGCTGGACTTTGTAGGA'
p833
I1
sS'ACATCTCAGTAACAGATA'
p834
I1
sS'GTTAATGGATGAATTGGC'
p835
I1
sS'CACGACCAGAAAACTGGC'
p836
I1
sS'AAAATAGTTGTTATAGAT'
p837
I1
sS'GACGCGACGCCGTTCAAC'
p838
I1
sS'TGGTTGATATTTTTCATT'
p839
I1
sS'AAAAAGTAAAAATGTCTA'
p840
I1
sS'CTCAGGAGGAAGCGGAGC'
p841
I1
sS'GATGAACTAAGTCAACCT'
p842
I1
sS'CATGGTAACGCTGCATGA'
p843
I1
sS'CTAAATACGTTAACAAAA'
p844
I4
sS'ATTAATAACACTATAGAC'
p845
I1
sS'GAAAGTGTTAACTTCTGC'
p846
I1
sS'GACGCACGTTTTCTTCTG'
p847
I1
sS'ACTGACCAAACGTCGTTA'
p848
I1
sS'TCATCGCGAATATCCTTA'
p849
I1
sS'CATGAAAACATACAATTG'
p850
I1
sS'AACGCAGCGACGAGCACG'
p851
I1
sS'AGTCTGAAACATGATTAA'
p852
I1
sS'CTTTTCTTGGCACGATTA'
p853
I1
sS'AAATTGTTGACCACCTAC'
p854
I2
sS'TCACGTTCTGGTTGGTTG'
p855
I1
sS'TACGCGATTTCATAGTGG'
p856
I1
sS'ACGGAGAGCGCCAACGGC'
p857
I1
sS'ACCCCGTGGACAGATTTG'
p858
I1
sS'AAACCATAACGAGCATCA'
p859
I1
sS'GCAACAGCTTTATCAATA'
p860
I1
sS'AGTAGTTGAAATGGTAAT'
p861
I1
sS'TCTAGAGGGCCGCCTCCG'
p862
I1
sS'ATGTAATTAGTTATGTCA'
p863
I9
sS'CTTCAATATCTGGTTGAA'
p864
I1
sS'CAGCCATATAACTGGTAG'
p865
I2
sS'AGTACGCGTTCTTGCAAA'
p866
I1
sS'GAGAAAGCTCAGTCTCAG'
p867
I1
sS'CGAGATTATGCGCCAAAT'
p868
I1
sS'CGGCGTCCATCTCGAAGG'
p869
I1
sS'TAGTCGGAACCGAAGAAG'
p870
I1
sS'GATGGCAGCAACGGAAAC'
p871
I1
sS'GCTTTAAAATAGTTGTTA'
p872
I1
sS'ATTTAACCTGACTATTCC'
p873
I1
sS'TTGCTGGCGGTATTGCTT'
p874
I1
sS'AGCAGAAGCAATACCGCC'
p875
I1
sS'TCACCAGAACGGAAAACA'
p876
I2
sS'GTGAGCCGCTTAAAGCTA'
p877
I1
sS'TTAGCCTTGCGACCCTCG'
p878
I1
sS'GCAAAGCCTCTACGCGAT'
p879
I2
sS'CAATAGCAGGTTTAAGAG'
p880
I1
sS'AGCACGAGAGCGGTCAGT'
p881
I1
sS'TTTGGATTGCTACTGACC'
p882
I1
sS'GATTTGTCGTCACAGGTT'
p883
I1
sS'ATTGGCGCTACTGCAAAG'
p884
I1
sS'ATACTCAGGCACACAAAA'
p885
I1
sS'ATTCACACGCCGACTGCT'
p886
I1
sS'TCAGTTGTTGCAGTGGAA'
p887
I1
sS'AATGGAACAACTCACTAA'
p888
I1
sS'TCTAGAGGGTCGCATCAT'
p889
I2
sS'AGGGTTAGCCTCGGTACG'
p890
I1
sS'GGTATGGTTGACGCCGGA'
p891
I1
sS'AAAGCCCCTACGCGATTT'
p892
I1
sS'GATGATTTCGATTTTCTG'
p893
I1
sS'CCGGAGGCGGCTTTTTGA'
p894
I2
sS'GGCGACCATCCAAAGGAT'
p895
I1
sS'GAAGCAGAACGCAAAAAG'
p896
I2
sS'AAGGCCACGTATTTTGCA'
p897
I1
sS'CGCTGAATAGCAAAGCCT'
p898
I1
sS'AACGGCCTGTCTCATCAT'
p899
I1
sS'TAAGGGGCCGAAGCCCCT'
p900
I1
sS'TTCCATCAACATCATAGC'
p901
I1
sS'CCTCCAGCAATCTTGAAC'
p902
I1
sS'CTCTTAAGGATATTCGCG'
p903
I1
sS'CCAATGACCAAATCAAAG'
p904
I1
sS'CTAAAGGTGCTTTGACTT'
p905
I1
sS'ATTACCATTTCAACTACC'
p906
I1
sS'AAATCACCAGAAGGCGGT'
p907
I1
sS'GACGAATCACCAGAACGG'
p908
I1
sS'TTGACATTATGGGTCTGC'
p909
I1
sS'ATGGTACAGCTAATGGCC'
p910
I1
sS'GGTCGCAAGGCTAATGAT'
p911
I1
sS'TAAAAATGTCTACAGTAG'
p912
I1
sS'CATCAACATCATAGCCAG'
p913
I2
sS'TCTAGAGGGACGCATAAT'
p914
I1
sS'CACCATTATCGAACTCAA'
p915
I1
sS'CATCTCAAAAACATTTGG'
p916
I1
sS'TCGACGCCATTAATAATG'
p917
I1
sS'ATGGGAAGCCTTCAAGAA'
p918
I2
sS'TGCTATTGAGGCTTGTGG'
p919
I1
sS'GTGCTATGGCTAAAGCTG'
p920
I1
sS'TAGAAATATCCTTTGCAG'
p921
I1
sS'ATATGAGTCACATTTTGT'
p922
I1
sS'TGGAGACAAATAATCTCT'
p923
I1
sS'AAAATTCGACCTATCCTT'
p924
I2
sS'TAAGAGCCTCGATACGCT'
p925
I1
sS'GATATTTTTCATGGTATT'
p926
I1
sS'AGCACGCTCCCAAGCATT'
p927
I1
sS'GGCACAGAATGTTTATAG'
p928
I1
sS'AACCACCATTACCAGCAT'
p929
I1
sS'TGTACCATACTCAGGCAC'
p930
I1
sS'GTCTAAAGGTAAAAAACG'
p931
I1
sS'CTTAATCCAACTTACCAA'
p932
I1
sS'TAATCGTGCCAAGAAAAG'
p933
I1
sS'GGCGCTGAATTTACGGAA'
p934
I1
sS'ACGGAAAACATTATTAAT'
p935
I1
sS'CATAGAAACCAACAGCCA'
p936
I1
sS'CTGAATCTCTTTAGTCGC'
p937
I1
sS'TCATCATGGAAGGCGCTG'
p938
I1
sS'TCACGAAAATAGTCACGC'
p939
I2
sS'CTGGTATGGTGAACGCCG'
p940
I1
sS'CTTCTCATATTGGCGCTA'
p941
I1
sS'TGCGACAGGCTCATGCTG'
p942
I1
sS'GTAGCGAACTGCGATGGG'
p943
I1
sS'CTAAAGGCAAGCGTAAAG'
p944
I1
sS'TCATCCCGTCAACATTCA'
p945
I1
sS'CGGGATGAACATAATAAG'
p946
I1
sS'CATTAGCCTTGCGACCCT'
p947
I1
sS'TCAAGGCTCTAATGTTCC'
p948
I1
sS'AGCGGTCAGTAGCAATCC'
p949
I1
sS'TCTATGGTGCTGCATATC'
p950
I1
sS'ATTTTTGACGCACGTTTT'
p951
I1
sS'ACTACAAATCTCCCGCAA'
p952
I1
sS'GCCATACAAAACAGGGTC'
p953
I1
sS'ACTTAAGTGAGGTGATTT'
p954
I1
sS'AGGAAGCCAAGATGGGAA'
p955
I1
sS'AATAGTCACGCAAAGCAT'
p956
I1
sS'GAAGGGTAATAAGAACGA'
p957
I2
sS'ACTCGTCAGAAAATCGAA'
p958
I2
sS'ACAAATAATCTCTTTAAT'
p959
I1
sS'AAGACGGCCATTAGCTGT'
p960
I1
sS'CCCAGAGATTAGAGCGCA'
p961
I1
sS'TAATGTTCCTAACCCTGA'
p962
I2
sS'AAACTGGCGCCGAGCGTA'
p963
I1
sS'ATTTTTACTTTTTATGTC'
p964
I2
sS'ATGAATGGGAAGCCTTCA'
p965
I1
sS'CGCTTCGCTTGGTCAACC'
p966
I2
sS'GATAACCGCATCAAGCTC'
p967
I1
sS'ATCATAGGCAGTCGGGAG'
p968
I1
sS'AAAAAATTTAGGGTCGGC'
p969
I1
sS'CACGCAAGGTAAACGCGA'
p970
I1
sS'CACCTTTAGCATCAACAG'
p971
I2
sS'CCCGACGTTGCGGCTCAT'
p972
I1
sS'GCAAGAGTAAACATAGTG'
p973
I1
sS'GAAAGACGGTAAAGCTGA'
p974
I1
sS'TGACGAGTAACAAAGTTT'
p975
I1
sS'GGAAACACTGACGTTCTT'
p976
I1
sS'TGAGAAAATTCGACCTAT'
p977
I1
sS'AAGATTTGGAGGCATGAA'
p978
I1
sS'TCCATGATGAGACAGGCC'
p979
I1
sS'ATCATGGCGACCATCCAA'
p980
I1
sS'AGATTTAATACCAGCATC'
p981
I1
sS'CTGTACCATACTCAGGCA'
p982
I1
sS'GATTTGTCATTGTGAGCA'
p983
I1
sS'TCAGAAAGAGATTGCCGA'
p984
I1
sS'TAAACCAGTCCTTGACGA'
p985
I1
sS'GATTACTTCATGCAGCGT'
p986
I1
sS'CGAACGTCAGAAGCAGCC'
p987
I1
sS'ACGCGAACAATTCAGCGG'
p988
I1
sS'CATGGAAGGCGCTGAATT'
p989
I1
sS'CTTCGGTTCCGACTACCC'
p990
I1
sS'TTGTTGACATTTTAAAAG'
p991
I1
sS'CTCCACGATGAAATCGCG'
p992
I1
sS'CAACTTCGGGATGAAAAT'
p993
I1
sS'TATAACCAGTAGTGTTAA'
p994
I1
sS'GTTGAGGCTTGCGTTTAT'
p995
I1
sS'GTTGCAGGCTGGCACTTC'
p996
I1
sS'TGGTCTAACTTTACCGCT'
p997
I1
sS'GCATGGAAATGAAGACGG'
p998
I1
sS'TCCTCCTCCAACGCGTCC'
p999
I1
sS'GGACGCTCGACGCCATTA'
p1000
I1
sS'TTAACTTCTCAGTAACAG'
p1001
I1
sS'GCCTATGGAAGCCAAGCA'
p1002
I1
sS'TCCAGAAATTGTTCCAAG'
p1003
I1
sS'ACTGCTTGTTTACGAATT'
p1004
I1
sS'CAAAATACGTGGCCTTAT'
p1005
I2
sS'ACGCTACCTGTAGGAAGT'
p1006
I2
sS'TCATGTAATTAGTTATGT'
p1007
I2
sS'AGTAAGAACGTCAGTGTT'
p1008
I1
sS'TCAAGTAAGGGGCCGAAG'
p1009
I1
sS'AAATACTGATAGCAGTCG'
p1010
I1
sS'GCCATTAGCTGTACCATA'
p1011
I1
sS'AAAATGTGACTCATATCT'
p1012
I1
sS'CTGTTGAACACGACCAGA'
p1013
I1
sS'TTAATCCACTGTTCACCA'
p1014
I1
sS'AAATATCAACCACACCAG'
p1015
I1
sS'GCTGCTAAAGGTCTAGGA'
p1016
I2
sS'AGCTCAGGAAATGCAGCA'
p1017
I1
sS'TGGTCTATAGTGTTATTA'
p1018
I1
sS'GCTGCCATCTCAAAAACA'
p1019
I1
sS'CATAAGGCCACGTATTTT'
p1020
I2
sS'AACAACTGAACGGACTGG'
p1021
I1
sS'AATTAGTTATGTCACGCT'
p1022
I6
sS'ATCTATAACAACTATTTT'
p1023
I1
sS'GTTTTGCCGCAAGCTGGC'
p1024
I1
sS'GGAAAACACCAATCTTTC'
p1025
I1
sS'ACCTGTAGGAAGTGTCCG'
p1026
I1
sS'AAGTCGTCATTTGGCGAG'
p1027
I1
sS'TAGTAAGCTCTTTTTGAT'
p1028
I2
sS'TAAGGATGAGTGTTCAAG'
p1029
I1
sS'CCGCAGCCGTTGCGAGGT'
p1030
I1
sS'GACGTTCGTGATGAGTTT'
p1031
I1
sS'GTCAGTGTTTCCTGCGCG'
p1032
I1
sS'CATGAAGGATGGTGTTAA'
p1033
I1
sS'TGCGGACACTTCCTACAG'
p1034
I1
sS'AGAGATTGCTGGCATTCA'
p1035
I1
sS'ACGTTTGGTCAGTTCCAT'
p1036
I1
sS'CGGAAAACGAACAAGCGC'
p1037
I1
sS'TTCATCAAACGCTGAATA'
p1038
I1
sS'AAGTTCATGAAGGATGGT'
p1039
I1
sS'GTTAGTTGATGGCGAAAG'
p1040
I1
sS'GTTTTGTTTCTGGTGCTA'
p1041
I1
sS'CCGGCGTACGGGGAAGGA'
p1042
I1
sS'ACAGATGTATCCATCTGA'
p1043
I1
sS'CAGTCGGGAGAGGAGTGG'
p1044
I2
sS'ACCAACATAAACATTATT'
p1045
I1
sS'ATCATGGTAACGCTGCAT'
p1046
I1
sS'ACCAGAAAACTGGCCTAA'
p1047
I1
sS'GCTGATTATTTTGACTTT'
p1048
I1
sS'CATCAAAAGCAATATCAG'
p1049
I1
sS'CTTTCCTGCTCCTGTTGA'
p1050
I1
sS'TAACTTTTCCCAGCCTCA'
p1051
I1
sS'GAAACCAACATAAACATT'
p1052
I1
sS'CATCTGCTTATGGAAGCC'
p1053
I1
sS'TTTGGATGGTCGCCATGA'
p1054
I1
sS'CGACAAATCTGCTCAAAT'
p1055
I1
sS'TGCTAATTTGCATACTGA'
p1056
I1
sS'CTCAAAAAGAGATTGCTG'
p1057
I1
sS'TGATTTGCAAGAACGCGT'
p1058
I1
sS'CACCTTGAATGCCACCGG'
p1059
I1
sS'ATACGCTCGGCGCCAGTT'
p1060
I1
sS'AGGGTAGTCGGAACCGAA'
p1061
I1
sS'ACACTGACGTTCTTACTG'
p1062
I1
sS'GTTGAGTTTATTGCTGCC'
p1063
I1
sS'TTCTGCGTCAGTAAGAAC'
p1064
I1
sS'AGGCATGAAAACATAGAA'
p1065
I1
sS'CCCCCAACTTGATATTAA'
p1066
I1
sS'GAAGCCTGAATGAGCTTA'
p1067
I1
sS'GGCATACGCTCGGCGCCA'
p1068
I1
sS'TTGTTAACGTATTTAGCC'
p1069
I1
sS'CATTGGGGATTGAGAAAG'
p1070
I1
sS'TGTTTCCAGTCCGTTCAG'
p1071
I1
sS'AACACTGGTCATAATCAT'
p1072
I2
sS'GTACCCGACGACCAAAAT'
p1073
I1
sS'ATCGCGAGTGGTCGGCAG'
p1074
I1
sS'GCGATAAAACTCTGCAGG'
p1075
I1
sS'AGTCATGATTGAATCGCG'
p1076
I1
sS'GGGAGCACATTGTAGCAT'
p1077
I1
sS'TGGTTGAACGGCGTCGCG'
p1078
I1
sS'TTCATGGTAGAGATTCTC'
p1079
I1
sS'AATAGAGGCCAAAGCGGT'
p1080
I1
sS'GCTCTAATTTGTCTAGGA'
p1081
I1
sS'CCTGAAACAAATGCTTAG'
p1082
I2
sS'GAAAGAGATTGCCGAGAT'
p1083
I1
sS'CGTACGTTTCCAGACCGC'
p1084
I1
sS'AGCAAACGCAGAATCAGC'
p1085
I1
sS'CATTTGGACTGCTCCGCT'
p1086
I1
sS'TCGCAAGGTTAGTGCTGA'
p1087
I1
sS'AGTGGCTTAATATGCTTG'
p1088
I1
sS'ATAAAGCAGGAATTACTA'
p1089
I2
sS'GTGCGTGGATTACTATCT'
p1090
I1
sS'ATCGCAGTTCGCTACACG'
p1091
I1
sS'TCTAGAGGGCCGCAGCTT'
p1092
I1
sS'CACCTCACTTAAGTGGCT'
p1093
I1
sS'TTAACACTACTGGTTATA'
p1094
I1
sS'GAGCTTGATGCGGTTATC'
p1095
I1
sS'GTCGGAACCGAAGAAGAC'
p1096
I1
sS'AAGTGAGAACCAGCTTAT'
p1097
I1
sS'GTATCAGGGTTAATCGTG'
p1098
I2
sS'CTTTCCAGAAATTGTTCC'
p1099
I1
sS'TCTAAAGGGCGGCATCAT'
p1100
I1
sS'GGCTAAAGCTGGTAAAGG'
p1101
I1
sS'AAATGCCGCGGATTGGTT'
p1102
I1
sS'AGTCGGCGACTTCACGCC'
p1103
I2
sS'CGTATGCAGGGCGTTGAG'
p1104
I2
sS'GCTTGATTTGGTTGGACT'
p1105
I1
sS'TTTATTGCTGCCGTCATT'
p1106
I1
sS'AGGATGGTGTTAATGCCA'
p1107
I1
sS'GTTGCGTCTATTATGGAA'
p1108
I1
sS'GCTCTTGCTGGTGGCGCC'
p1109
I1
sS'TAGCATCAACAGGCCACA'
p1110
I1
sS'AGCCATAGCACCAGAAAC'
p1111
I2
sS'CAGACTTTTATTTCTCGC'
p1112
I2
sS'CTGAAACATGATTAAACT'
p1113
I1
sS'TCTAGAGCGCCGCATCAT'
p1114
I1
sS'GCGGTGCACTTTATGCGG'
p1115
I1
sS'ACGAACCATAAAAAAGCC'
p1116
I1
sS'TCAAACGGCCTGTCTCAT'
p1117
I1
sS'TAGACATGGCGCCCCCAG'
p1118
I1
sS'CGTACCTTCAAGAAGTCC'
p1119
I1
sS'TAGCTGTACCATACTCAG'
p1120
I1
sS'GTATAAGTCAAAGCACCT'
p1121
I1
sS'TCTGCTCAAATTTATGCG'
p1122
I1
sS'TCTAGAGGGCTGCATCAT'
p1123
I2
sS'TCGTCGCTGCGTTGAGGC'
p1124
I2
sS'TTAGTACCTCGCAACGGC'
p1125
I1
sS'AATTTGAGCAGATTTGTC'
p1126
I1
sS'GCTCACCTTTAGCATCAA'
p1127
I2
sS'ACGGCCATTAGCTGTACC'
p1128
I2
sS'CGCCTCCAAACAATTTAG'
p1129
I1
sS'AATTACGTGCAGAAGGAG'
p1130
I1
sS'GACGACCAATCTGACCAG'
p1131
I1
sS'TTTAAGCGGCTCACCTTT'
p1132
I2
sS'CTTGACGAACGTGCCAAG'
p1133
I1
sS'ATGACAAGTAAAGGACGG'
p1134
I1
sS'TCTAGAGGGCCGCCTCAT'
p1135
I3
sS'CGGCAACAGCTTTATCAA'
p1136
I1
sS'ACTGGTAGCTTTAAGCGG'
p1137
I1
sS'AGTTCGCTACACGCAGGA'
p1138
I1
sS'TATCCATCTGAATGCAAT'
p1139
I1
sS'GATGAGTGTTCAAGATTG'
p1140
I1
sS'AACCAGAACGTGAAAAAG'
p1141
I1
sS'CCGGAGTAGTTGAAATGG'
p1142
I1
sS'CTGGTTGGTTGTGGCCTG'
p1143
I1
sS'TAATTAGTTATGTCACGC'
p1144
I4
sS'CAAATGCTTAGGGATTTT'
p1145
I1
sS'TGCGTCAAAAATTACGTG'
p1146
I1
sS'TGGCTGTTGGTTTCTATG'
p1147
I2
sS'GTCCCCTTCGGGGCGGTG'
p1148
I1
sS'TCTCTTTCTGATTGTCCA'
p1149
I1
sS'CATGTAATTAGTTATGTC'
p1150
I14
sS'AGTCTGCCGCTGATAAAG'
p1151
I1
sS'TTCATGCCTCCAAATCTT'
p1152
I1
sS'TAAATCACCTCACTTAAG'
p1153
I1
sS'AGCTTGCAGACCCATAAT'
p1154
I1
sS'GCCACCGGAGGCGGCTTT'
p1155
I1
sS'CTGATGCTTCCTCTGCTG'
p1156
I1
sS'CGAGCGCCAGAACGTTTT'
p1157
I1
sS'AGGAACCGCCTTCTGGTG'
p1158
I1
sS'AACATACATATCACCATT'
p1159
I1
sS'AATTGTATGTTTTCATGC'
p1160
I1
sS'GATATTAATAACACTATA'
p1161
I1
sS'GATGCTAAAGGTGAGCCG'
p1162
I1
sS'CGAACCAAACAGGCAAAA'
p1163
I1
sS'TAATCTCGGAAACCTGCT'
p1164
I1
sS'TCGCTTGGTCAACCCCTC'
p1165
I1
sS'AATCATGAGTCAAGTTAC'
p1166
I2
sS'GACGATGTAGCTTTAGGT'
p1167
I1
sS'TTTGAGCGTATCGAGGCT'
p1168
I1
sS'AGTCAACCTCAGCACTAA'
p1169
I1
sS'AATGTCGTCACTGATGCT'
p1170
I1
sS'CTCATTTTCCGCCAGCAG'
p1171
I1
sS'ATACGTTAACAAAAAGTC'
p1172
I1
sS'CCGTAAATTCAGCGCCTT'
p1173
I1
sS'TAACACTACTGGTTATAT'
p1174
I1
sS'ACGATAAACCAACCATCA'
p1175
I1
sS'GCTTTAGGTGTCTGTAAA'
p1176
I2
sS'CTTTCTCAATCCCCAATG'
p1177
I1
sS'TGTGCTTGCTACCGATAA'
p1178
I1
sS'TCATGGTAACGCTGCATG'
p1179
I1
sS'GTTCAGTAACTTGACTCA'
p1180
I1
sS'CGCCATTAATAATGTTTT'
p1181
I1
sS'TTATGGTTCGTTCTTATT'
p1182
I1
sS'ATGGTGGCGAATAAGTAC'
p1183
I1
sS'TAGGGACGGCCTCATCAG'
p1184
I1
sS'GAAAATTCGACCTATCCT'
p1185
I1
sS'AACACTATAGACCACCGC'
p1186
I2
sS'CGCTCTTTTAAAATGTCA'
p1187
I1
sS'CGATGAGGGACATAAAAA'
p1188
I1
sS'GCTTAGGGATTTTATTGG'
p1189
I2
sS'TCTAGAGGGCCGTATCAT'
p1190
I1
sS'TATTCAAATAACCCTGAA'
p1191
I1
sS'TTTGGTCATTGGTAAAAT'
p1192
I1
sS'AGTCGGAACCGAAGAAGA'
p1193
I1
sS'TGGCTAAATACGTTAACA'
p1194
I1
sS'AAGAGATTCTGTCTTTTC'
p1195
I1
sS'TGAATGAATGGGAAGCCT'
p1196
I1
sS'GACAACCGTCCTTTACTT'
p1197
I2
sS'CGGTCAAAAAGCCGCCTC'
p1198
I1
sS'GACGCGTTGGATGAGGAG'
p1199
I1
sS'CGGCATGGTTAATATAAC'
p1200
I1
sS'GACGGCCATTAGCTGTAC'
p1201
I1
sS'TCTAGAGGGACGCATCAT'
p1202
I1
sS'TTCACACGCCGACTGCTA'
p1203
I1
sS'AAAGAATGGAACAACTCA'
p1204
I1
sS'GCGTTTCTTTGTTCCTGA'
p1205
I1
sS'GCATTTGGCGCATAATCT'
p1206
I1
sS'GAGTTTGTATCTGTTACT'
p1207
I1
sS'GCTTAATGCTTGGGAGCG'
p1208
I1
sS'AAGCGAGGGTATCCTACA'
p1209
I1
sS'ATGGCGAGAAATAAAAGT'
p1210
I1
sS'AGAATCTCTTCCAAGAGC'
p1211
I1
sS'TCTCTACCATGAACAAAA'
p1212
I1
sS'CAAAATATAAAGTTGACG'
p1213
I1
sS'AACCTGTGACGACAAATC'
p1214
I1
sS'TTGGATGAGGAGAAGTGG'
p1215
I1
sS'CCAAATCAAAGAAATGAC'
p1216
I1
sS'GTTGTTTCTGTTGGTGCT'
p1217
I1
sS'AACGAGGCTCTTAAACCT'
p1218
I1
sS'ATGGAAGGCGCTGAATTT'
p1219
I2
sS'AAAATTATCTTGATAAAG'
p1220
I1
sS'AACGTGCGTCAAAAATTA'
p1221
I1
sS'TGCCGAGATGCAAAATGA'
p1222
I1
sS'GAGAACGAGAAGACGGTT'
p1223
I1
sS'CTAGACAAATTAGAGCCA'
p1224
I1
sS'CTAACGACGTTTGGTCAG'
p1225
I1
sS'GGTTGGATACGCCAATCA'
p1226
I1
sS'TTACCTCCAAATGAAGAA'
p1227
I1
sS'AGCGACAGCTTGGTTTTT'
p1228
I1
sS'GGCTCTTAAACCTGCTAT'
p1229
I1
sS'ACGTTTTTTACCTTTAGA'
p1230
I2
sS'TATTGTTATCGGTAGCAA'
p1231
I1
sS'TCTAGAGGGCCGCATCAG'
p1232
I1
sS'TATGTTTGGTGCTATTGC'
p1233
I1
sS'TTCTGGTGATTCGTCTAA'
p1234
I1
sS'GCTAATGATTCACACGCC'
p1235
I1
sS'TGAATTGTTCGCGTTTAC'
p1236
I1
sS'GTGAAAAAGCGTCCTGCG'
p1237
I1
sS'CAGAAATATCCGAAAGTG'
p1238
I1
sS'TTCGATTTTCTGACGAGT'
p1239
I1
sS'TCTAGAGTTCCGCATCAT'
p1240
I1
sS'AACTGGCCTAACGACGTT'
p1241
I1
sS'AATGAAGAAAACCACCAT'
p1242
I1
sS'GAGCTCTCTAGAGGGCCG'
p1243
I1
sS'TGCTGATGCTTCCTCTGC'
p1244
I1
sS'ACAATCCGTACGTCTCCA'
p1245
I1
sS'AGTCTACTGCTCGCGTTG'
p1246
I1
sS'CACAGTCCTTGACGGTAT'
p1247
I1
sS'TTAAATAGCTTGCAAAAT'
p1248
I1
sS'GGTCGCCAGCAATATCGG'
p1249
I1
sS'TTTGAATGTTGACGGGAT'
p1250
I1
sS'ATATAACGTTGACGATGT'
p1251
I1
sS'TCAACCCCTCAGCGGCAA'
p1252
I1
sS'CCTTGCTATTGACTCTAC'
p1253
I1
sS'ACGTGACGATGAGGGACA'
p1254
I1
sS'GTTATCGGTAGCAAGCAC'
p1255
I1
sS'CCTAGACAAATTAGAGCC'
p1256
I1
sS'GCACATCACCTTGAATGC'
p1257
I1
sS'TCTATCGGGCCACATCAT'
p1258
I1
sS'TTTGTTTCTGGTGCTATG'
p1259
I1
sS'TGGGAGGGTGTCAATCCT'
p1260
I1
sS'AATCATGTTTCAGACTTT'
p1261
I1
sS'GTTACTGAGAAGTTAATG'
p1262
I1
sS'TTAGACATAATTTATCCT'
p1263
I1
sS'AATCAGAATGAGCCGCAA'
p1264
I1
sS'ACCTTAACGCTAAAGGTG'
p1265
I1
sS'TTATTAAAGAGATTATTT'
p1266
I1
sS'CGTCGTAACCCAGCTTGG'
p1267
I1
sS'GATTGCCGAGATGCAAAA'
p1268
I1
sS'GTCTAACTTTACCGCTAC'
p1269
I1
sS'TAAAGGACTTCTTGAAGG'
p1270
I1
sS'ATTAGCTGTACCATACTC'
p1271
I1
sS'CCTAGACCTTTAGCAGCA'
p1272
I1
sS'CAAGAGCAGAAGCAATAC'
p1273
I1
sS'ATAATAAGCAATGACGGC'
p1274
I1
sS'CCGCCAGCAGTCCACTTC'
p1275
I1
sS'CATCCAAAGGATAAACAT'
p1276
I1
sS'ATCCATCTGAATGCAATG'
p1277
I1
sS'TGTGACGACAAATCTGCT'
p1278
I2
sS'GATTTCGATTTTCTGACG'
p1279
I1
sS'ATAATGGTGATATGTATG'
p1280
I1
sS'AGAAGTTTAAGATTGCTG'
p1281
I1
sS'AGCTTGGTTTTTAGTGAG'
p1282
I1
sS'GTCTAAATTGTTTGGAGG'
p1283
I2
sS'AATTCAGCGCCTTCCATG'
p1284
I1
sS'CTCTTTCTGATTGTCCAG'
p1285
I1
sS'CCGCATCATGTAATTAGT'
p1286
I7
sS'AGTTATGTCACGCTTACA'
p1287
I1
sS'GCGACTTCACGCCAGAAT'
p1288
I1
sS'CATCCCGTCAACATTCAA'
p1289
I2
sS'GGACGGTTGTCAGCGTCA'
p1290
I2
sS'CATGATTGAATCGCGAGT'
p1291
I1
sS'ACAGGGTCGCCAGCAATA'
p1292
I2
sS'CGGTAAAGTTAGACCAAA'
p1293
I1
sS'AAAGGTCTAGGAGCTAAA'
p1294
I1
sS'GCTAGAGAGCAGCATCAT'
p1295
I1
sS'CATCTGTCAACGCCGCTA'
p1296
I1
sS'CAGCAATCTCTTTTTGAG'
p1297
I1
sS'GTATTTTTGTGTGCCTGA'
p1298
I1
sS'CCTCCCGACTGCCTATGA'
p1299
I1
sS'CTACAAAGTCCAGCGTAC'
p1300
I1
sS'GATGGTGGTTATTATACC'
p1301
I2
sS'GTAGGCATGGGTGATGCG'
p1302
I1
sS'TTATGTCACGCGTACATT'
p1303
I1
sS'AACGCTACCTGTAGGAAG'
p1304
I1
sS'CAACTTGATATTAATAAC'
p1305
I1
sS'CGCCGCTAATCAGGTTGT'
p1306
I1
sS'TGAGGCTTGCGTTTATGG'
p1307
I1
sS'ACGGGGAAGGACGTCAAT'
p1308
I1
sS'TTTATCCTTTGGATGGTC'
p1309
I1
sS'GAAATTGTTCCAAGTATC'
p1310
I1
sS'ATCCCCAATGCTTGGCTT'
p1311
I2
sS'TCACCAGAAGGCGGTTCC'
p1312
I1
sS'AATCACCAGAACGGAAAA'
p1313
I1
sS'ACTGACGTTCTTACTGAC'
p1314
I1
sS'TCCTTTGCAGTAGCGCCA'
p1315
I1
sS'CCACCAAGTCCAACCAAA'
p1316
I1
sS'TAATGGTGGTTTTCTTCA'
p1317
I1
sS'AACCTGATTCAGCGAAAC'
p1318
I1
sS'CTCAGTCTCAGGAGGAAG'
p1319
I1
sS'TGGGAAGTAGCGACAGCT'
p1320
I1
sS'AGAAAGGTATTAAGGATG'
p1321
I1
sS'CCAGAACGGAAAACATCC'
p1322
I1
sS'GATTTGCAAGAACGCGTA'
p1323
I1
sS'CAAGAGCTGTTTGCTTGA'
p1324
I1
sS'AACTGCGATGGGCATACT'
p1325
I1
sS'TTTAGTAGCGGTAAAGTT'
p1326
I1
sS'TGCGTACCCGACGACCAA'
p1327
I1
sS'GCACTTTATGCGGACACT'
p1328
I1
sS'GTGAGCATTTTCATCCCG'
p1329
I1
sS'TTGCTATTCAGCGTTTGA'
p1330
I1
sS'AGTACAGGGCTACATCAT'
p1331
I1
sS'AATAGTCACACAGTCCTT'
p1332
I1
sS'ACCACTAATAGGTAAGAA'
p1333
I1
sS'CATGCCTCCAAATCTTGG'
p1334
I1
sS'GATGCCTGACCGTACCGA'
p1335
I1
sS'GAACGGACTGGAAACACT'
p1336
I1
sS'GCAGCAATAAACTCAACA'
p1337
I1
sS'CACTTCCTAGAGGTAGCG'
p1338
I1
sS'ACCTACCGCGCTTCGCTT'
p1339
I2
sS'ACATAGTGCCATGCTCAG'
p1340
I1
sS'TTGTCTAGGAAATAACCG'
p1341
I1
sS'CCCCTGCAATTAAAATTG'
p1342
I1
sS'TCCATTGCGTCGTGGCCT'
p1343
I1
sS'CAAGTAAGGGGCCGAAGC'
p1344
I1
sS'ACCAACCAGAACGTGAAA'
p1345
I1
sS'TTCATCCCGTCAACATTC'
p1346
I1
sS'TGGCACAATGCTACAATG'
p1347
I2
sS'CTCTGCTGGTATGGTTGA'
p1348
I1
sS'TCGGTGCGGTCAGGCATC'
p1349
I1
sS'AGGGCCGCATCATGTAAT'
p1350
I1
sS'ACTACTGCTTGTTTACGA'
p1351
I1
sS'TAGTGTTAACAGTCGGGA'
p1352
I3
sS'CCAGACCGCTTTGGCCTC'
p1353
I1
sS'AAAGGCAAGCGTAAAGGC'
p1354
I2
sS'TCAAGGACTGGTTTAGAT'
p1355
I1
sS'AATTAGGGTCAACGCTAC'
p1356
I2
sS'GGGTGATGCTGGTATTAA'
p1357
I1
sS'TTTCCTTTATCAGCGGCA'
p1358
I1
sS'AGCTTTAGCCATAGCACC'
p1359
I2
sS'AGACGAATCACCAGAACG'
p1360
I1
sS'TTTAGAGGGCGGCTTCAT'
p1361
I1
sS'CAGTCCACTTCGATTTAA'
p1362
I2
sS'CTAGCCTTCCGAGCTCTC'
p1363
I1
sS'ATCTTGGCTTCCTTGCTG'
p1364
I1
sS'CGATAATGGTGATATGTA'
p1365
I1
sS'TCTCAATCCCCAATGCTT'
p1366
I1
sS'AGCAACGGAAACCATAAC'
p1367
I1
sS'TCTATAGGGCCGCATCAT'
p1368
I1
sS'TAGTCGCAGTAGGCGGAA'
p1369
I1
sS'AGCCGCAACTTCGGGATG'
p1370
I1
sS'CTTGGGAGCGTGCTGGTG'
p1371
I1
sS'AAAATGCTCACAATGACA'
p1372
I1
sS'TATCGGCAACAGCTTTAT'
p1373
I1
sS'AACATCCTTCATAGAAAT'
p1374
I1
sS'CTACAATGTGCTCCCCCA'
p1375
I1
sS'CCGCATAAAGTGCACCGC'
p1376
I1
sS'TAACTGCGGGTGAGCTCT'
p1377
I3
sS'TGATGTTATTTCTTCATT'
p1378
I1
sS'CAGGCACACAAAAATACT'
p1379
I1
sS'TGAGGGACATAAAAAGTA'
p1380
I1
sS'TTCCGCCTACTGCGACTA'
p1381
I1
sS'ACATTGTAGCATTGTGCC'
p1382
I2
sS'CGCCAGCAATATCGGTAT'
p1383
I1
sS'TTAATACCAGCATCACCC'
p1384
I1
sS'TACTGAATCTCTTTAGTC'
p1385
I1
sS'CATCCTTAATACCTTTCT'
p1386
I1
sS'AAACATTATTAATGGCGT'
p1387
I1
sS'CATGACGCAGAAGTTAAC'
p1388
I1
sS'AAGCGAACCAAACAGGCA'
p1389
I1
sS'CCACCATTACCAGCATTA'
p1390
I1
sS'CTCCAGCAATCTTGAACA'
p1391
I1
sS'ACAGTGGATTAAGTTCAT'
p1392
I1
sS'TCAGGTTATTAAAGAGAT'
p1393
I1
sS'TTTTTAGTGAGTTGTTCC'
p1394
I1
sS'CCATGAAACCAACATAAA'
p1395
I1
sS'GTTAGACCAAACCATGAA'
p1396
I2
sS'TCTAGCGGGCCGCATCAT'
p1397
I1
sS'TAGAGCCAATACCATCAG'
p1398
I1
sS'GTGCTCTAGTGTGCTAGG'
p1399
I1
sS'CAGATTTAATACCAGCAT'
p1400
I3
sS'GTTACTGTAGCCGACGTT'
p1401
I1
sS'CTATCCTTGCGCAGCTCG'
p1402
I1
sS'TTTTTAGAGAACGAGAAG'
p1403
I1
sS'AGGCTGGGAAAAGTTACT'
p1404
I1
sS'TTTCCGTTCTGGTGATTC'
p1405
I1
sS'TCGGCGCCAGTTTGAATA'
p1406
I1
sS'TTATTTCACGATTGCATT'
p1407
I1
sS'CGCAGCTCGAGAAGCTCT'
p1408
I1
sS'ATTAATATCAAGTTGGGG'
p1409
I1
sS'TACCGCTACTAAATGCCG'
p1410
I1
sS'GCGGTTCCTGAATGAATG'
p1411
I1
sS'TTTTTGGTCGGCATCAAA'
p1412
I1
sS'GACCAAATCAAAGAAATG'
p1413
I1
sS'TAACCACCATCATGGCGA'
p1414
I1
sS'GAAGCGGTAAAAATTTTA'
p1415
I1
sS'CTTGCAAAATACGTGGCC'
p1416
I1
sS'TAAAACCTCTTATGACGC'
p1417
I2
sS'ACGGCAGAAGTGCCAGCC'
p1418
I1
sS'CACGCTGATTATTTTGAC'
p1419
I1
sS'GAGGGTATCCTACAAAGT'
p1420
I2
sS'CACCATCATGGCGACCAT'
p1421
I3
sS'ATGCAATTACTTATGTCA'
p1422
I1
sS'CGATTTTCTGACGAGTAA'
p1423
I1
sS'GGCAAAACTGCGTAACCG'
p1424
I1
sS'TCGCCAGCAATAACGGTA'
p1425
I1
sS'GCTGCATGAAGTAATCAC'
p1426
I1
sS'ACTTTTTGTTAACGTATT'
p1427
I1
sS'ACTCACTAAAAACCAAGC'
p1428
I1
sS'TCTTTCCAGAAATTGTTC'
p1429
I1
sS'TGTTGAACACGACCAGAA'
p1430
I2
sS'GGTAACGTATTTAGCGAC'
p1431
I1
sS'CTATGGCTAAAGCTGGTA'
p1432
I1
sS'GTGCTCCCCCAACTTGAT'
p1433
I1
sS'TTGACACCCTCCCAATTG'
p1434
I1
sS'AACCAACCAGAACGTGAA'
p1435
I1
sS'AGCCACTTAAGTGAGGTG'
p1436
I1
sS'CAAGCACATCACCTTGAA'
p1437
I2
sS'TGTCGCTACTTCCCAAGA'
p1438
I2
sS'GCCTTCAAGAAGGTGATA'
p1439
I1
sS'TGTAGGATACCCTCGCTT'
p1440
I1
sS'GGACGCCGTTGGCGCTCT'
p1441
I1
sS'CCCTAAATTTTTTGCCTG'
p1442
I1
sS'TTCATCCATTAACTTCTC'
p1443
I1
sS'TCAATAGTCACACAGTCC'
p1444
I1
sS'AACCAAAACGGCAGAAGC'
p1445
I1
sS'AGAAGTCGTCATTTGGCG'
p1446
I1
sS'ATGGTCAATATAACCAGT'
p1447
I1
sS'TTGGAACAATTTCTGGAA'
p1448
I1
sS'GCTAAAGAATGGAACAAC'
p1449
I1
sS'TCTAGAGGGCCGCATCTT'
p1450
I1
sS'CAGAAAACTGGCCTAACG'
p1451
I1
sS'GAATGTTTATAGGTCTGT'
p1452
I1
sS'CTCCACTATGAAATCGCG'
p1453
I1
sS'AGCTAATGGCCGTCTTCA'
p1454
I1
sS'CTGTTCAACCACTAATAG'
p1455
I1
sS'AAGCGTCCTGCGTGTAGC'
p1456
I1
sS'TCTAGTGGGCCGCATCAT'
p1457
I1
sS'CGTACACGCAAGGTAAAC'
p1458
I1
sS'CTTGGAAGAGATTCTGTC'
p1459
I1
sS'TTATCGGTAGCAAGCACA'
p1460
I1
sS'CCATAATGTCAATAGATG'
p1461
I1
sS'GTTTACCTTGCGTGTACG'
p1462
I2
sS'GCAGGAGAAACATACGAA'
p1463
I1
sS'TGGCGACCCTGTTTTGTA'
p1464
I1
sS'AACGTACGGATTGTTCAG'
p1465
I2
sS'AGACTCAAAGCGAACCAA'
p1466
I1
sS'CAATAGCAAGGCCACGAC'
p1467
I1
sS'CTAATGTCGTCACTGATG'
p1468
I1
sS'CTCCGCTTCCTCCTGAGA'
p1469
I1
sS'AGTCACACAGTCCTTGAC'
p1470
I1
sS'AACCTGATTAGCGGCGTT'
p1471
I1
sS'GGTACGCTGGACTTTGTA'
p1472
I1
sS'GATTAGAGCGCATGACAA'
p1473
I1
sS'CAAAAATTAAAATTTTTA'
p1474
I1
sS'TCTAGAGGGCCGCCTGCT'
p1475
I1
sS'TTTTTGCCTGTTTGGTTC'
p1476
I1
sS'ACGTACCTTCAAGAAGTC'
p1477
I1
sS'GTGGACTGCTGGCGGAAA'
p1478
I1
sS'TTTTGCGTTCTGCTTCAA'
p1479
I1
sS'TGGACTGCTGGCGGAAAA'
p1480
I1
sS'GTGCACTTTATGCGGACA'
p1481
I1
sS'AGCTTGGTAAGTTGGATT'
p1482
I1
sS'GGTTGGTTTATCGTTTTT'
p1483
I1
sS'GTGGATTAAGTTCATGAA'
p1484
I1
sS'TCTTAAACCTGCTATTGA'
p1485
I1
sS'TACTTGAGGATAAATTAT'
p1486
I1
sS'TCTTTCGTATTCTGGCGT'
p1487
I1
sS'CAGCCTCAATCTCATCTC'
p1488
I1
sS'AGCGTGACATTCAGAAGG'
p1489
I1
sS'CGGCCATAAGGCTGCTTC'
p1490
I1
sS'TGGTGCTGATGCTTCCTC'
p1491
I1
sS'CACGCCAGGTAAACGCGA'
p1492
I1
sS'AACCCTAATGAGCTTAAT'
p1493
I3
sS'CCGTCAACATACATATCA'
p1494
I1
sS'TGAATCTCTTTAGTCGCA'
p1495
I1
sS'CGGTATTGCTTCTGCTCT'
p1496
I1
sS'GGCGCTCGCCCTGGTCGT'
p1497
I1
sS'CCATGATGAGACAGGCCG'
p1498
I1
sS'CTCATCCTTAATACCTTT'
p1499
I1
sS'AAAGGAAAGGATACTCGT'
p1500
I1
sS'TCAAAAACATTTGGACTG'
p1501
I1
sS'GCATTTGTTTCAGGGTTA'
p1502
I1
sS'AAATGTCAATAGATGTGG'
p1503
I1
sS'AACCAAACAGGCAAAAAA'
p1504
I1
sS'AGACAGAATCTCTTCCAA'
p1505
I1
sS'AAAACTGGCCTAACGACG'
p1506
I1
sS'ATTGTTATCGGTAGCAAG'
p1507
I2
sS'AATATCGGTATAAGTCAA'
p1508
I1
sS'GCAACAACTGAACGGACT'
p1509
I1
sS'GGATGAGGAGAAGTGGCT'
p1510
I1
sS'TTCCGTAAATTCAGCGCC'
p1511
I1
sS'TATGGTTTCCGTTGCTGC'
p1512
I1
sS'GCTCAGGAACAAAGAAAC'
p1513
I1
sS'CTTACTTTGCGACCTTTC'
p1514
I1
sS'CTGAATGAGCTTAATAGA'
p1515
I1
sS'GCAACGGAAACCATAACG'
p1516
I1
sS'GTAACAGATACAAACTCA'
p1517
I1
sS'GATAAAGCAGGAATTACT'
p1518
I1
sS'TTTAATTGCAGGGGCTTC'
p1519
I1
sS'TAAACATCATAGGCAGTC'
p1520
I1
sS'GGCAGACTTGCCACCAAG'
p1521
I1
sS'AACAGATACAAACGCATC'
p1522
I1
sS'ATGTCAATAGATGTGGTA'
p1523
I1
sS'AGAGAACGAGAAGACGGT'
p1524
I1
sS'GATGATGCTCGTTATGGT'
p1525
I1
sS'AACAAAGAAACGCGGCAC'
p1526
I1
sS'CCAACCAGAACGTGAAAA'
p1527
I1
sS'TAGGAACATTAGAGCCTT'
p1528
I2
sS'GCTCAAAGTCAAAATAAT'
p1529
I1
sS'AAATTAAAATTTTTACCG'
p1530
I1
sS'TCTAGACGCCCGCACACT'
p1531
I1
sS'CTGCCGACCACTCGCGAT'
p1532
I1
sS'AAACGTCGTTAGGCCAGT'
p1533
I1
sS'TCTAGAGGGGCGCATCAT'
p1534
I2
sS'AAAGTTAGACCAAACCAT'
p1535
I3
sS'AATATGCTTGGCACGTTC'
p1536
I1
sS'GCACCTTTAGCGTTAAGG'
p1537
I1
sS'CATTAGCTGTACCATACT'
p1538
I1
sS'TGCTTGCTTATCAACAGA'
p1539
I1
sS'GCGTGTACGCGCAGGAAA'
p1540
I1
sS'TCCCAATTGTATGTTTTC'
p1541
I1
sS'TCGTTATGCGCCTTCGTA'
p1542
I1
sS'GCGTCCTGCGTGTAGCGA'
p1543
I1
sS'TCCAAACTTTGTTACTCG'
p1544
I1
sS'AAATCGCGTAGAGGCTTT'
p1545
I1
sS'GCCACCACATCCAACCAA'
p1546
I1
sS'GCTTCGGCCCCTTACTTG'
p1547
I1
sS'TCCAAAGGGACGCTTCAT'
p1548
I1
sS'TAACCTCACACTCAATCT'
p1549
I1
sS'TGCGTAACCGTCTTCTCG'
p1550
I2
sS'GAATAGCAAAGCCTCTAC'
p1551
I1
sS'ATAGTGCCATGCTCAGGA'
p1552
I1
sS'GTAAGTTGGATTAAGCAC'
p1553
I1
sS'TATCTGGTTGAACGGCGT'
p1554
I1
sS'ACGCGGCACAGAATGTTT'
p1555
I1
sS'GATAGCAGTCGGCGTGTG'
p1556
I1
sS'GTTGCCATACAAAACAGG'
p1557
I1
sS'CGTTAACAAAAAGTCAGA'
p1558
I2
sS'TGTAAAACAGGTGCCGAA'
p1559
I1
sS'TTAAGGATATTCGCGATG'
p1560
I1
sS'GAGAAAGACGGAGAGCGC'
p1561
I1
sS'AGTCCTTTACCAGCTTTA'
p1562
I1
sS'GCTCGTCGCTGCGTTGAG'
p1563
I1
sS'CGCTTCCATGACGCAGAA'
p1564
I2
sS'ACGGGATGAACATAATAA'
p1565
I1
sS'ATGTCAACAAGAGAATCT'
p1566
I1
sS'CAAGCTCAAACGGCTGGT'
p1567
I1
sS'TTTAGCTCCTAGACCTTT'
p1568
I1
sS'TATGCGCCTTCGTATGTT'
p1569
I1
sS'TCCACGGAGTGCTTAATC'
p1570
I1
sS'GAAGGATGTTTTCCGTTC'
p1571
I1
sS'CAGTGGAATAGTCAGGTT'
p1572
I1
sS'TGAATTTACGGAAAACAT'
p1573
I1
sS'CCAGCTTTAGCCATAGCA'
p1574
I1
sS'CTCAATCTCATCTCTCTT'
p1575
I1
sS'GGCAGAAGTGCCAGCCTG'
p1576
I1
sS'ACCTTTAGACATTACATC'
p1577
I1
sS'AGGTACTGAATCTCTTTA'
p1578
I1
sS'AACATTATTGCCCGGCGT'
p1579
I1
sS'CAGATATGGACCTTGCTG'
p1580
I1
sS'GAACATAATAAGCAATGA'
p1581
I1
sS'TCTCGCGGGCCGCATCAG'
p1582
I1
sS'TTTTCCGTTCTGGTGATT'
p1583
I1
sS'CGTTTGAATGTTGACGGG'
p1584
I1
sS'AACTTGACTCATGATTTC'
p1585
I1
sS'TTGCAAGAACGCGTACTT'
p1586
I1
sS'TCAGATATGGACCTTGCT'
p1587
I2
sS'TTTGAGATGGCAGCAACG'
p1588
I1
sS'ATAGCAGGTTTAAGAGCC'
p1589
I2
sS'CGTGATTATCTTGCTGCT'
p1590
I1
sS'TTAATCGTGCCAAGAAAA'
p1591
I1
sS'TGCCCAGAGATTAGAGCG'
p1592
I1
sS'TACGTTTCCAGACCGCTT'
p1593
I1
sS'GATGGGCATACTGTAACC'
p1594
I1
sS'AGAAACATACGAAGGCGC'
p1595
I1
sS'ATGAAGAAAACCACCATT'
p1596
I1
sS'TCTAGAGGGCCTCATCAT'
p1597
I1
sS'AGACAAATTAGAGCCAAT'
p1598
I1
sS'ACGTATTTTGCAAGCTAT'
p1599
I1
sS'AACTGGACAATCAGAAAG'
p1600
I1
sS'AAATATCCTTTGCAGTAG'
p1601
I1
sS'CAGGTTTAAGAGCCTCGA'
p1602
I1
sS'CTGCTCAAATTTATGCGC'
p1603
I1
sS'CTGCACGTAATTTTTGAC'
p1604
I1
sS'GCTAATGGCCGTCTTCAT'
p1605
I1
sS'TTAACACCATCCTTCATG'
p1606
I1
sS'GACTGTGTGACTATTGAC'
p1607
I1
sS'TTTCAGACTTTTATTTCT'
p1608
I1
sS'AGATGATGCTCGTTATGG'
p1609
I1
sS'CGACCAATCTGACCAGCA'
p1610
I1
sS'TTTTCGTATGCAGGGCGT'
p1611
I1
sS'TGAGCTTAATGCTTGGGA'
p1612
I1
sS'AGACCAGGTATATGCACA'
p1613
I1
sS'TCACGTTCTTGGTCAGTA'
p1614
I1
sS'AAAAATTATCTTGATAAA'
p1615
I1
sS'AGCTGTTCAGAATCAGAA'
p1616
I1
sS'TCTCGAGGGCCGCATCAT'
p1617
I1
sS'TGACCGCCTCCAAACAAT'
p1618
I1
sS'CCGATTAGAGGCGTTTTA'
p1619
I1
sS'ACCATTTTTCGTCCCCTT'
p1620
I1
sS'TTCGTCCCCTTCGGGGCG'
p1621
I1
sS'CAAGTATCGGCAACAGCT'
p1622
I1
sS'CGCACGTTTTCTTCTGCG'
p1623
I1
sS'GGTTGTCAGCGTCATAAG'
p1624
I1
sS'AGAAACAAAACTAGGGAC'
p1625
I1
sS'ACATTATTGCCCGGCGTA'
p1626
I1
sS'TTCAAGGCTCTAATGTTC'
p1627
I1
sS'CCCTGAAACAAATGCTTA'
p1628
I1
sS'CATTAGGGTTAGCCTCGG'
p1629
I1
sS'GCGTTAAGGTACTGAATC'
p1630
I1
sS'GTGGCCTGTTGATGCTAA'
p1631
I1
sS'CTGGTGCTATGGCTAAAG'
p1632
I1
sS'CAGGGTTAATCGTGCCAA'
p1633
I1
sS'CCTAGAGGGCCGCATCAT'
p1634
I1
sS'CATAATTTATCCTCAAGT'
p1635
I2
sS'TACAGCTAATGGCCGTCT'
p1636
I1
sS'AGTTATATGGCTGTTGGT'
p1637
I1
sS'GCACAACACCTTGAATGC'
p1638
I1
sS'GTCCTTGACGAACGTGCC'
p1639
I1
sS'GCGTACACGCAAGGTAAA'
p1640
I1
sS'AGAGGCTTTGCTATTCAG'
p1641
I1
sS'ATGGCTCTTCTCATATTG'
p1642
I1
sS'CGGGATGAAAATGCTCAC'
p1643
I1
sS'ATGATGGTGGTTATTATA'
p1644
I1
sS'GAAGAGCCATACCGCTGA'
p1645
I1
sS'TAACAGCGGCAGACTTGC'
p1646
I1
sS'TACTGTAGGCATGGGTGA'
p1647
I2
sS'AATTATGGCGAGAAATAA'
p1648
I2
sS'ACGCGCAGGAAACACTGA'
p1649
I1
sS'ATGTCTAAAGGTAAAAAA'
p1650
I1
sS'ACCTTGAATGCCACCGGA'
p1651
I1
sS'ACTTCCTACAGGTAGCGT'
p1652
I1
sS'GAAGGACGTCAATAGTCA'
p1653
I1
sS'TTTAATGAGTTATGTCAC'
p1654
I1
sS'TCAGGCTTCTGCCGTTTT'
p1655
I1
sS'TCGTGATATTGGTCGTAT'
p1656
I1
sS'CGAGGGTCGCAAGGCTAA'
p1657
I1
sS'CCAGTTTGAATATTAGAC'
p1658
I1
sS'AAACCTGCTATTGAGGCT'
p1659
I1
sS'ATAACACTATAGACCACC'
p1660
I1
sS'TGATTCAGCGAAACCAAT'
p1661
I2
sS'TCCCAGCCTCAATCTCAT'
p1662
I1
sS'TTCAAGAAGTCCTTTACC'
p1663
I1
sS'AGTAGTGTTAACAGTCGG'
p1664
I2
sS'TCTGGAGGGCCGCATCAT'
p1665
I1
sS'CGACCCTCGGCAGCAAGA'
p1666
I1
sS'CCCCACATCCGCCCTAAC'
p1667
I1
sS'AGCGAAGCGCGGTAGGTT'
p1668
I1
sS'ACAATTTAGACATGGCGC'
p1669
I1
sS'CGCCAAAACGTCGGCTAC'
p1670
I1
sS'GCCATACCGCTGATTCTG'
p1671
I1
sS'ATAATCATGGTGGCGAAT'
p1672
I2
sS'ACCGCATGGAAATGAAGA'
p1673
I2
sS'CAGATTTGTCATTGTGAG'
p1674
I1
sS'TCTGAATGCAATGAAGAA'
p1675
I1
sS'TTTTACCTCCAAATGAAG'
p1676
I1
sS'TATTAAGCTCATTCAGGC'
p1677
I1
sS'CTGGTGGCGCCATGTCTA'
p1678
I1
sS'GCGGTGGTCTATAGTGTT'
p1679
I1
sS'TGGAAACACTGGTCATAA'
p1680
I2
sS'GGAAACGTACGGAATGTT'
p1681
I1
sS'AAAATGGTTTTTAGAGAA'
p1682
I1
sS'CTTTTTGATTCTCAAATC'
p1683
I1
sS'CCAAACGTCGTTAGGCCA'
p1684
I1
sS'GTCGCTACTTCCCAAGAA'
p1685
I1
sS'CATTTAGTAGCGGTAAAG'
p1686
I1
sS'CCAAGCAACAGCAGGTTT'
p1687
I2
sS'CGCCAATCATTTTTATCG'
p1688
I1
sS'GAGGATAAATTATGTCTA'
p1689
I1
sS'TACCGATATTGCTGGCGA'
p1690
I1
sS'AACCGAAGAAGACTCAAA'
p1691
I1
sS'TGCTCAAATTTATGCGCG'
p1692
I1
sS'AAACCAACATAAACATTA'
p1693
I2
sS'CTGAATCAGGTTATTAAA'
p1694
I1
sS'AAGGTAAACGCGAACAAT'
p1695
I2
sS'AAAGTAAAAATGTCTACA'
p1696
I1
sS'GCGAACCAAACAGGCAAA'
p1697
I3
sS'ATGCCACTCCTCTCCCGA'
p1698
I1
sS'CCTCTTATGACGCTGACA'
p1699
I1
sS'CTTCGATTTAATTCGTAA'
p1700
I1
sS'ACGCAATGGAGAAAGACG'
p1701
I1
sS'AACCTCACACTCAATCTT'
p1702
I1
sS'TGAAAACATACAATTGGG'
p1703
I3
sS'ATTGGGAGGGTGTCAATC'
p1704
I1
sS'AGGGTAATAAGAACGAAC'
p1705
I1
sS'TCATTTGGCGAGAAAGCT'
p1706
I1
sS'AACATTATTAATGGCGTC'
p1707
I2
sS'CGTCATTTGGCGAGAAAG'
p1708
I1
sS'GCTATTTAACTGGCGGCG'
p1709
I2
sS'CTTCTGCACGTAATTTTT'
p1710
I1
sS'TAGCACCAAACATAAATC'
p1711
I2
sS'GTTTATCGTTTTTGACAC'
p1712
I1
sS'TTTATTTCTCGCCATAAT'
p1713
I1
sS'AGTTGAAATGGTAATAAG'
p1714
I1
sS'GCATTAACACCATCCTTC'
p1715
I1
sS'TCCATGCGGTGCACTTTA'
p1716
I1
sS'GGAAAGCGAGGGTATCCT'
p1717
I3
sS'TATGCCTGGTCTTTCGTA'
p1718
I1
sS'CGGTCTGGAAACGTACGG'
p1719
I1
sS'ACCGCATCAAGCTCTTGG'
p1720
I1
sS'TGTAGCTTTAGGTGTCTG'
p1721
I1
sS'TTTAATAACCTGATTCAG'
p1722
I2
sS'AAATTAGGGTCAACGCTA'
p1723
I1
sS'AGTCCAACCAAATCAAGC'
p1724
I1
sS'GGGCCGCATCATGTAATT'
p1725
I3
sS'ACTTTTATTTCTCGCCAT'
p1726
I1
sS'TCAGTAAGAACGTCAGTG'
p1727
I1
sS'CCTTCTGCACGTAATTTT'
p1728
I1
sS'GAGGGTGTCAATCCTGAC'
p1729
I2
sS'CTTTATGCGGACACTTCC'
p1730
I1
sS'TAGCAGCAAGGTCCATAT'
p1731
I1
sS'AACGCGAACAATTCAGCG'
p1732
I1
sS'CCATATAACTGGTAGCTT'
p1733
I2
sS'AAGGATATTTCTAATGTC'
p1734
I1
sS'CACGGAGTGCTTAATCCA'
p1735
I2
sS'CGGTCACATTAAATTTAA'
p1736
I2
sS'GGAGGTAAAACCTCTTAT'
p1737
I1
sS'ATGCCAGCAATCTCTTTT'
p1738
I1
sS'GAATCTCTTTAGTCGCAG'
p1739
I1
sS'GCCTCCAGCAATCTTGAA'
p1740
I1
sS'TCCTTCATGAACTTAATC'
p1741
I1
sS'CAACTGAACGGACTGGAA'
p1742
I1
sS'CAGCTCGAGAAGCTCTTA'
p1743
I1
sS'GATTTAATTCGTAAACAA'
p1744
I1
sS'TGCAGGGCGTTGAGTTCG'
p1745
I1
sS'TCCCAAAAACATTTGGAC'
p1746
I1
sS'GGTTACAGTATGCCCATC'
p1747
I2
sS'TACAAGTAAACGCGTTAG'
p1748
I1
sS'TGGTTGGACTTGGTGGCA'
p1749
I1
sS'TTATGTCCCGCTTACATT'
p1750
I1
sS'GGGATGAAAATGCTCACA'
p1751
I2
sS'AGAAAATTCGACCTATCC'
p1752
I1
sS'ATTGGTCGTATGGTTCTT'
p1753
I1
sS'AAGAGTAAACATAGTGCC'
p1754
I1
sS'CCAGAAATTGTTCCAAGT'
p1755
I1
sS'ATCTCTGGGCATCTGGCT'
p1756
I1
sS'TCTAAAGGGCCACATCAT'
p1757
I1
sS'TGCCAAGAAAAGCGGCAT'
p1758
I1
sS'CAATCCCCAATGCTTGGC'
p1759
I1
sS'TGCGTGTACGCGCAGGAA'
p1760
I1
sS'TTTCCATGCGGTGCACTT'
p1761
I1
sS'TTCCTGAGCTTAATGCTT'
p1762
I1
sS'TAGAAATGCCACAAGCCT'
p1763
I1
sS'TCTGCTTCAATATCTGGT'
p1764
I1
sS'ATAAGTCAAAGCACCTTT'
p1765
I1
sS'TTTCCGCCAGCAGTCCAC'
p1766
I1
sS'GACGCCGTTCAACCAGAT'
p1767
I1
sS'AAGGATACTCGTGATTAT'
p1768
I1
sS'CTCGTCAGAAAATCGAAA'
p1769
I1
sS'TGTAGCGAACTGCGATGG'
p1770
I1
sS'TAAACTCCTAAGCAGAAA'
p1771
I1
sS'CTATTGACTCTACTGTAG'
p1772
I1
sS'TTCGTTTTCCGCCTACTG'
p1773
I1
sS'TGGTCGTCCGCAGCCGTT'
p1774
I1
sS'AATTTTTGACGCACGTTT'
p1775
I1
sS'GCTGACAACCGTCCTTTA'
p1776
I1
sS'ATAAACGGTCACATTAAA'
p1777
I2
sS'AGTATGCAAATTAGCATA'
p1778
I1
sS'GCCTTTACGCTTGCCTTT'
p1779
I1
sS'AGTATTGTTATCGGTAGC'
p1780
I1
sS'AGACTCAAAAAGAGATTG'
p1781
I1
sS'GAATAAGTACGCGTTCTT'
p1782
I2
sS'ATCGTCACGTTTATGGTG'
p1783
I1
sS'CCATGATGGTGGTTATTA'
p1784
I1
sS'GTAACTTGACTCATGATT'
p1785
I1
sS'ATCGGTATAAGTCAAAGC'
p1786
I1
sS'GACGGTTACGCAGTTTTG'
p1787
I1
sS'ATATAACTGGTAGCTTTA'
p1788
I2
sS'TACTACTGCTTGTTTACG'
p1789
I1
sS'TTTCTTCTGCGTCAGTAA'
p1790
I1
sS'ATTGCCCGGCGTACGGGG'
p1791
I1
sS'GCCAGCGATAACCGGAGC'
p1792
I1
sS'TCTCAGTAACAGATACAA'
p1793
I1
sS'GTTCTTGGTCAGTATGCA'
p1794
I1
sS'TTCTGTGCCGCGTTTCTT'
p1795
I1
sS'CTGACCAGCCGTTTGAGC'
p1796
I1
sS'AATGTGCTCCCCCAACTT'
p1797
I1
sS'GCGTATCGAGGCTCTTAA'
p1798
I2
sS'TATCTATAACAACTATTT'
p1799
I1
sS'AGTTGTTATAGATATTCA'
p1800
I1
sS'CGGAAACCATAACGAGCA'
p1801
I1
sS'CTGGCTATGATGTTGATG'
p1802
I1
sS'GTTTATGTTGGTTTCATG'
p1803
I1
sS'AGATTCAGTACCTTAACG'
p1804
I1
sS'CTGAGCATGGCACTATGT'
p1805
I1
sS'CATGCGGTACACTTTATG'
p1806
I1
sS'TATAGACCACCGCCCCGA'
p1807
I1
sS'ACAGCTTTATCAATACCA'
p1808
I2
sS'TCTTGGTCAGTATGCAAA'
p1809
I1
sS'TTAAATTTAACCTGACTA'
p1810
I1
sS'CAGGGTTAGGAACATTAG'
p1811
I1
sS'GTCCGCAGCCGTTGCGAG'
p1812
I1
sS'AGCCAAGCATTGGGGATT'
p1813
I1
sS'TTAACTGGCGGCGATTGC'
p1814
I1
sS'TGAGAATCAAAAAGAGCT'
p1815
I1
sS'TCGTGATTATCTTGCTGC'
p1816
I1
sS'TTTGAATTATGGCGAGAA'
p1817
I1
sS'GTAGGCGGAAAACGAACA'
p1818
I1
sS'CAGCCACTTAAGTGAGGT'
p1819
I1
sS'AACATACGAAGGCGCATA'
p1820
I1
sS'ATGCCCAGAGATTAGAGC'
p1821
I1
sS'GAGACTCAAAAAGAGATT'
p1822
I2
sS'CCTTGACGGTATAATAAC'
p1823
I1
sS'AGCGTGGATTACTATCTG'
p1824
I1
sS'ATACTGTAGGCATGGGTG'
p1825
I1
sS'TGATTTGGTTGGACTTGG'
p1826
I1
sS'ATTCAAACTGGCGCCGAG'
p1827
I1
sS'CAGGACGCTTTTTCACGT'
p1828
I1
sS'AGTCCAGCGTACCATAAA'
p1829
I1
sS'TTTTATTGGTATCAGGGT'
p1830
I1
sS'TTGGGATTATCATAAAAC'
p1831
I2
sS'GCCGTTTGAATGTTGACG'
p1832
I1
sS'TGCAGACCCATAATGTCA'
p1833
I2
sS'AACATTCTGTGCCGCGTT'
p1834
I1
sS'GTCGCCGACTGAATGCCA'
p1835
I1
sS'TCCAAACAATTTAGACAT'
p1836
I1
sS'ATTGCATTCATCAAACGC'
p1837
I1
sS'CAAAATTAGGGTCAACGC'
p1838
I1
sS'ACTGCGTAACCGTCTTCT'
p1839
I1
sS'TCTTATGACGCTGACAAC'
p1840
I1
sS'ATAGCACCAAACATAAAT'
p1841
I1
sS'GTCTTCTCGTTCTCTAAA'
p1842
I1
sS'AGGTAAAACCTCTTATGA'
p1843
I1
sS'CAAGAACCATACGACCAA'
p1844
I1
sS'AATGACCAAATCAAAGAA'
p1845
I1
sS'TCTAGAGGGCCGCATCGT'
p1846
I1
sS'CCAAACAATTTAGACATG'
p1847
I1
sS'TAGAGGGCCGCATCATGT'
p1848
I5
sS'GATATGAGTCACATTTTG'
p1849
I1
sS'CAGCTTTAGCCATAGCAC'
p1850
I1
sS'TTGCGTCTATTATGGAAA'
p1851
I1
sS'GTGAGGTGATTTATTTTT'
p1852
I1
sS'TCTTTAGTCGCAGTAGGC'
p1853
I2
sS'ATGCTGGTATTAAATCTG'
p1854
I1
sS'GCTCTAATGTTCCTAACC'
p1855
I1
sS'GTTCATGAAGGATGGTGT'
p1856
I1
sS'TCTAGAGGGCCTCATCCT'
p1857
I1
sS'ACTGGAAACACTGGTCAT'
p1858
I1
sS'AATAGAGGGCCGCATCAT'
p1859
I1
sS'CATTCAGGCTTCTGCCGT'
p1860
I2
sS'TTGTTCGCGTTTACCTTG'
p1861
I1
sS'TGATTATCTTGCTGCTGC'
p1862
I1
sS'GAGAATCAAAAAGAGCTT'
p1863
I1
sS'CATAAACGTGACGATGAG'
p1864
I1
sS'GCAAGTTGCCATACAAAA'
p1865
I1
sS'AGTTTGAATATTAGACAT'
p1866
I1
sS'CAATATCAGCACCAACAG'
p1867
I1
sS'CCAGAACGTTTTTTACCT'
p1868
I1
sS'CATACCAGCAGAGGAAGC'
p1869
I1
sS'TACTGTAGCCGACGTTTT'
p1870
I1
sS'AACGCAGCGACGAGCCCG'
p1871
I1
sS'CGGTTATCCATCTGCTTA'
p1872
I1
sS'GCGATGGGCATACTGTAA'
p1873
I1
sS'TTAGCCACATAGAAACCA'
p1874
I1
sS'CGAGTGGTCGGCAGATTG'
p1875
I1
sS'ATGCTGGTAATGGTGGTT'
p1876
I1
sS'GGATGAAAATGCTCACAA'
p1877
I1
sS'AATGACAAATCTGTCCAC'
p1878
I1
sS'CCGTCAACATTCAAACGG'
p1879
I2
sS'CCTGATTAGCGGCGTTGA'
p1880
I2
sS'GTTCTGGTTGGTTGTGGC'
p1881
I1
sS'CGCCGGGCAATAATGTTT'
p1882
I1
sS'TTGCTGCCGTCATTGCTT'
p1883
I1
sS'GGTGATTCGTCTAAGAAG'
p1884
I1
sS'CAAGATTTGGAGGCATGA'
p1885
I1
sS'TCAGCACCAACAGAAACA'
p1886
I1
sS'AACTTTTCCCAGCCTCAA'
p1887
I1
sS'GTGGCATTAACACCATCC'
p1888
I1
sS'TCGGTCGTCAGCCAACGT'
p1889
I2
sS'TTTTAGTAAGCTCTTTTT'
p1890
I1
sS'GACCCTCGGCAGCAAGAA'
p1891
I1
s.