(dp1
S'8AAB######################'
p2
(I33
S'CAG'
tp3
sS'-<@9######################'
p4
(I48
S'CGC'
tp5
sS'B6-8######################'
p6
(I18
S'TCC'
tp7
sS'688A######################'
p8
(I73
S'ACT'
tp9
sS'<B--######################'
p10
(I49
S'TGC'
tp11
sS'-6<8######################'
p12
(I29
S'GCG'
tp13
sS'-A@@######################'
p14
(I11
S'GGC'
tp15
sS'A68B######################'
p16
(I70
S'AAC'
tp17
sS'--A<######################'
p18
(I5
S'GTT'
tp19
sS'@8A@######################'
p20
(I76
S'GGA'
tp21
sS'C@9C######################'
p22
(I27
S'CTC'
tp23
sS'-B--######################'
p24
(I58
S'GGT'
tp25
sS'88<-######################'
p26
(I16
S'AAT'
tp27
sS'-AB-######################'
p28
(I38
S'ATA'
tp29
sS'-6-@######################'
p30
(I57
S'ACC'
tp31
sS'8B-8######################'
p32
(I37
S'AAA'
tp33
sS'6666######################'
p34
(I69
S'AGG'
tp35
sS'TGCANNNNNNNNNNNNNNNNNNNNNN'
p36
(I46
S'GCA'
tp37
sS'-AA6######################'
p38
(I41
S'CGG'
tp39
sS'6886######################'
p40
(I60
S'TGT'
tp41
sS'-@88######################'
p42
(I68
S'TTA'
tp43
sS'AACC######################'
p44
(I70
S'TAT'
tp45
sS'C@@<######################'
p46
(I15
S'CTC'
tp47
sS'-B@<######################'
p48
(I64
S'AAG'
tp49
sS'A96-######################'
p50
(I23
S'CAA'
tp51
sS'6668######################'
p52
(I40
S'TAT'
tp53
sS'6686######################'
p54
(I34
S'GTT'
tp55
sS'8A-A######################'
p56
(I72
S'AAC'
tp57
sS'-<6@######################'
p58
(I17
S'TGC'
tp59
sS'6A@B######################'
p60
(I55
S'ACA'
tp61
sS'<@9C######################'
p62
(I48
S'ACC'
tp63
sS'-@BC######################'
p64
(I9
S'GTA'
tp65
sS'CACCNNNNNNNNNNNNNNNNNNNNNN'
p66
(I13
S'GTC'
tp67
sS'AA@@######################'
p68
(I61
S'TAA'
tp69
sS'<@-@######################'
p70
(I43
S'GTG'
tp71
sS'BCC-######################'
p72
(I75
S'TCC'
tp73
sS'-8<9######################'
p74
(I73
S'AAG'
tp75
sS'BB-<######################'
p76
(I33
S'GGG'
tp77
sS'TAACNNNNNNNNNNNNNNNNNNNNNN'
p78
(I63
S'GCC'
tp79
sS'-<@C######################'
p80
(I9
S'GCT'
tp81
sS'-88A######################'
p82
(I64
S'TCG'
tp83
sS'86A8######################'
p84
(I64
S'CTA'
tp85
sS'68@-######################'
p86
(I32
S'TAT'
tp87
sS'CCCC######################'
p88
(I48
S'CAT'
tp89
sS'8668######################'
p90
(I48
S'TTA'
tp91
sS'CBCC######################'
p92
(I49
S'AGC'
tp93
sS'-BC9######################'
p94
(I56
S'GGC'
tp95
sS'8B@@######################'
p96
(I0
S'WT'
p97
tp98
sS'8AA6######################'
p99
(I42
S'CGG'
tp100
sS'86@C######################'
p101
(I33
S'CAA'
tp102
sS'8BA-######################'
p103
(I69
S'CAG'
tp104
sS'CCCGNNNNNNNNNNNNNNNNNNNNNN'
p105
(I63
S'ACT'
tp106
sS'A998######################'
p107
(I23
S'GAT'
tp108
sS'TATCNNNNNNNNNNNNNNNNNNNNNN'
p109
(I66
S'TGA'
tp110
sS'6A<@######################'
p111
(I55
S'ATA'
tp112
sS'<<<A######################'
p113
(I66
S'CAT'
tp114
sS'GCTCNNNNNNNNNNNNNNNNNNNNNN'
p115
(I17
S'ACA'
tp116
sS'GAAANNNNNNNNNNNNNNNNNNNNNN'
p117
(I9
S'CTG'
tp118
sS'-<@6######################'
p119
(I45
S'ATA'
tp120
sS'@88-######################'
p121
(I25
S'ATG'
tp122
sS'9C-<######################'
p123
(I65
S'CAT'
tp124
sS'-8-B######################'
p125
(I29
S'TAC'
tp126
sS'A68-######################'
p127
(I29
S'CGC'
tp128
sS'@-8-######################'
p129
(I19
S'TAG'
tp130
sS'@<@-######################'
p131
(I27
S'ACG'
tp132
sS'A<8-######################'
p133
(I8
S'TCT'
tp134
sS'6@66######################'
p135
(I42
S'CAC'
tp136
sS'C<C9######################'
p137
(I50
S'CCC'
tp138
sS'8<-A######################'
p139
(I0
g97
tp140
sS'A6--######################'
p141
(I0
g97
tp142
sS'@<@C######################'
p143
(I51
S'GTC'
tp144
sS'6@<C######################'
p145
(I0
g97
tp146
sS'@6-@######################'
p147
(I73
S'AAA'
tp148
sS'AAACNNNNNNNNNNNNNNNNNNNNNN'
p149
(I34
S'GGC'
tp150
sS'AC-A######################'
p151
(I31
S'TTG'
tp152
sS'TAAANNNNNNNNNNNNNNNNNNNNNN'
p153
(I50
S'CGG'
tp154
sS'@<-A######################'
p155
(I47
S'CCG'
tp156
sS'CC-<######################'
p157
(I20
S'GCC'
tp158
sS'-8B6######################'
p159
(I17
S'GAC'
tp160
sS'@<--######################'
p161
(I60
S'CCC'
tp162
sS'8-8B######################'
p163
(I29
S'ACC'
tp164
sS'-6BA######################'
p165
(I73
S'TAT'
tp166
sS'AB<-######################'
p167
(I63
S'AGG'
tp168
sS'-<A-######################'
p169
(I30
S'GCC'
tp170
sS'866C######################'
p171
(I70
S'GCC'
tp172
sS'6A<-######################'
p173
(I46
S'ATA'
tp174
sS'6-6<######################'
p175
(I13
S'ACA'
tp176
sS'6@B-######################'
p177
(I47
S'GGG'
tp178
sS'-@C9######################'
p179
(I52
S'AGA'
tp180
sS'89-6######################'
p181
(I67
S'CGA'
tp182
sS'<C-<######################'
p183
(I75
S'AAG'
tp184
sS'-88-######################'
p185
(I69
S'GTT'
tp186
sS'-B9-######################'
p187
(I59
S'TTG'
tp188
sS'-8A8######################'
p189
(I29
S'TTG'
tp190
sS'CAC<######################'
p191
(I61
S'TGA'
tp192
sS'@CC@######################'
p193
(I4
S'CTC'
tp194
sS'<C9B######################'
p195
(I3
S'GCT'
tp196
sS'6B<8######################'
p197
(I62
S'TCT'
tp198
sS'-C--######################'
p199
(I29
S'CTC'
tp200
sS'CACGNNNNNNNNNNNNNNNNNNNNNN'
p201
(I26
S'AAG'
tp202
sS'A96@######################'
p203
(I56
S'GGT'
tp204
sS'686A######################'
p205
(I40
S'CAG'
tp206
sS'-6-<######################'
p207
(I28
S'ATT'
tp208
sS'8<A-######################'
p209
(I66
S'GGG'
tp210
sS'ABAA######################'
p211
(I48
S'GGG'
tp212
sS'@<<-######################'
p213
(I30
S'TGC'
tp214
sS'8<@-######################'
p215
(I44
S'CCC'
tp216
sS'-AC?######################'
p217
(I24
S'AAC'
tp218
sS'AB@C######################'
p219
(I6
S'GCA'
tp220
sS'GCCANNNNNNNNNNNNNNNNNNNNNN'
p221
(I73
S'ACG'
tp222
sS'CB-A######################'
p223
(I32
S'CGT'
tp224
sS'CAACNNNNNNNNNNNNNNNNNNNNNN'
p225
(I56
S'TGC'
tp226
sS'-<@<######################'
p227
(I61
S'ATG'
tp228
sS'9C9@######################'
p229
(I29
S'TAC'
tp230
sS'9B6@######################'
p231
(I12
S'GTA'
tp232
sS'BB-6######################'
p233
(I63
S'TAG'
tp234
sS'-A6@######################'
p235
(I25
S'GCC'
tp236
sS'@A<-######################'
p237
(I18
S'TCC'
tp238
sS'-<<C######################'
p239
(I52
S'CCG'
tp240
sS'8CC-######################'
p241
(I49
S'AGC'
tp242
sS'<--8######################'
p243
(I55
S'ACC'
tp244
sS'-@<<######################'
p245
(I69
S'GTT'
tp246
sS'@<9<######################'
p247
(I68
S'ATT'
tp248
sS'68A@######################'
p249
(I58
S'CGT'
tp250
sS'--66######################'
p251
(I71
S'CCG'
tp252
sS'9@@-######################'
p253
(I3
S'CGA'
tp254
sS'A6<-######################'
p255
(I75
S'CTC'
tp256
sS'-<<B######################'
p257
(I27
S'CAA'
tp258
sS'<B<-######################'
p259
(I55
S'GTC'
tp260
sS'-B-@######################'
p261
(I74
S'TTT'
tp262
sS'6@9@######################'
p263
(I51
S'GGG'
tp264
sS'6ABB######################'
p265
(I28
S'CTA'
tp266
sS'A<6A######################'
p267
(I55
S'CCA'
tp268
sS'AA8A######################'
p269
(I43
S'GCC'
tp270
sS'68-B######################'
p271
(I15
S'ATT'
tp272
sS'8C--######################'
p273
(I14
S'GAA'
tp274
sS'B9-6######################'
p275
(I72
S'GAA'
tp276
sS'AC-8######################'
p277
(I66
S'ATT'
tp278
sS'-8-@######################'
p279
(I15
S'CGA'
tp280
sS'@8-8######################'
p281
(I73
S'AAA'
tp282
sS'GCACNNNNNNNNNNNNNNNNNNNNNN'
p283
(I65
S'CCT'
tp284
sS'686@######################'
p285
(I24
S'ACC'
tp286
sS'68AB######################'
p287
(I10
S'AGG'
tp288
sS'AC9A######################'
p289
(I26
S'CGC'
tp290
sS'6B98######################'
p291
(I26
S'GTC'
tp292
sS'6C<-######################'
p293
(I23
S'GAT'
tp294
sS'-86@######################'
p295
(I10
S'GGC'
tp296
sS'88A-######################'
p297
(I17
S'AAA'
tp298
sS'66AA######################'
p299
(I61
S'TCC'
tp300
sS'@AC-######################'
p301
(I6
S'GGT'
tp302
sS'8A66######################'
p303
(I23
S'CCG'
tp304
sS'-8@@######################'
p305
(I15
S'TCG'
tp306
sS'@8A9######################'
p307
(I40
S'TTC'
tp308
sS'-@C-######################'
p309
(I57
S'TCA'
tp310
sS'6A9-######################'
p311
(I4
S'GGG'
tp312
sS'A6-6######################'
p313
(I21
S'GCA'
tp314
sS'-A<-######################'
p315
(I8
S'TAT'
tp316
sS'AB@8######################'
p317
(I54
S'GTG'
tp318
sS'CCAANNNNNNNNNNNNNNNNNNNNNN'
p319
(I34
S'GAT'
tp320
sS'@B-A######################'
p321
(I13
S'AGC'
tp322
sS'-A98######################'
p323
(I15
S'CGG'
tp324
sS'-6<A######################'
p325
(I4
S'GAC'
tp326
sS'68@9######################'
p327
(I46
S'GGG'
tp328
sS'-6BC######################'
p329
(I22
S'TCG'
tp330
sS'6@-A######################'
p331
(I60
S'CAC'
tp332
sS'B@8A######################'
p333
(I34
S'CCG'
tp334
sS'68-6######################'
p335
(I27
S'CGT'
tp336
sS'A8-8######################'
p337
(I35
S'TAC'
tp338
sS'6<@C######################'
p339
(I10
S'GCC'
tp340
sS'-ABC######################'
p341
(I38
S'AAA'
tp342
sS'-C-A######################'
p343
(I72
S'GCC'
tp344
sS'-@@9######################'
p345
(I13
S'CCG'
tp346
sS'-A8C######################'
p347
(I67
S'CGA'
tp348
sS'<B-6######################'
p349
(I74
S'TGG'
tp350
sS'CAAANNNNNNNNNNNNNNNNNNNNNN'
p351
(I7
S'GAG'
tp352
sS'@@-8######################'
p353
(I43
S'TCG'
tp354
sS'C@BB######################'
p355
(I64
S'CGC'
tp356
sS'88@6######################'
p357
(I33
S'GGA'
tp358
sS'GCAGNNNNNNNNNNNNNNNNNNNNNN'
p359
(I4
S'GAA'
tp360
sS'-6@C######################'
p361
(I62
S'TGC'
tp362
sS'B-@B######################'
p363
(I34
S'GTT'
tp364
sS'<B96######################'
p365
(I38
S'GCT'
tp366
sS'CCTGNNNNNNNNNNNNNNNNNNNNNN'
p367
(I57
S'GAG'
tp368
sS'8@@<######################'
p369
(I60
S'GGG'
tp370
sS'A@A-######################'
p371
(I14
S'CGC'
tp372
sS'6A-@######################'
p373
(I36
S'CCC'
tp374
sS'866@######################'
p375
(I22
S'CCA'
tp376
sS'-<-A######################'
p377
(I62
S'GCT'
tp378
sS'66-A######################'
p379
(I23
S'GCG'
tp380
sS'888<######################'
p381
(I54
S'GTT'
tp382
sS'A86<######################'
p383
(I48
S'GCC'
tp384
sS'--<8######################'
p385
(I25
S'GGG'
tp386
sS'A8B@######################'
p387
(I37
S'CCC'
tp388
sS'GGAANNNNNNNNNNNNNNNNNNNNNN'
p389
(I63
S'GCT'
tp390
sS'6-86######################'
p391
(I4
S'GTG'
tp392
sS'<6-8######################'
p393
(I63
S'CAT'
tp394
sS'TCTCNNNNNNNNNNNNNNNNNNNNNN'
p395
(I26
S'ACT'
tp396
sS'-<-8######################'
p397
(I19
S'CGA'
tp398
sS'-ABA######################'
p399
(I45
S'TCG'
tp400
sS'-8@9######################'
p401
(I42
S'CAC'
tp402
sS'CCCANNNNNNNNNNNNNNNNNNNNNN'
p403
(I14
S'GCC'
tp404
sS'GCCGNNNNNNNNNNNNNNNNNNNNNN'
p405
(I7
S'ACC'
tp406
sS'8B<-######################'
p407
(I11
S'GGG'
tp408
sS'-88@######################'
p409
(I75
S'AAG'
tp410
sS'A888######################'
p411
(I0
g97
tp412
sS'GCAANNNNNNNNNNNNNNNNNNNNNN'
p413
(I66
S'CCT'
tp414
sS'B@96######################'
p415
(I15
S'CGA'
tp416
sS'8B68######################'
p417
(I5
S'ACC'
tp418
sS'-6A@######################'
p419
(I40
S'TGC'
tp420
sS'-AA@######################'
p421
(I7
S'GTG'
tp422
sS'@--8######################'
p423
(I63
S'CTT'
tp424
sS'@8BC######################'
p425
(I73
S'GGA'
tp426
sS'-CC9######################'
p427
(I33
S'CCT'
tp428
sS'C@<C######################'
p429
(I45
S'TTA'
tp430
sS'A9-6######################'
p431
(I48
S'CAT'
tp432
sS'C6-<######################'
p433
(I28
S'GGG'
tp434
sS'-<@A######################'
p435
(I16
S'AAT'
tp436
sS'-A8-######################'
p437
(I59
S'AAC'
tp438
sS'AACGNNNNNNNNNNNNNNNNNNNNNN'
p439
(I24
S'CAG'
tp440
sS'-86<######################'
p441
(I51
S'TGT'
tp442
sS'CC@6######################'
p443
(I71
S'TTC'
tp444
sS'6C-A######################'
p445
(I18
S'CGC'
tp446
sS'8@A-######################'
p447
(I7
S'CCC'
tp448
sS'<CB<######################'
p449
(I5
S'CGC'
tp450
sS'9CC-######################'
p451
(I9
S'TCT'
tp452
sS'-9-8######################'
p453
(I44
S'AAA'
tp454
sS'868<######################'
p455
(I73
S'AAG'
tp456
sS'6A--######################'
p457
(I24
S'GAT'
tp458
sS'B8-B######################'
p459
(I10
S'ATA'
tp460
sS'8B--######################'
p461
(I35
S'ACT'
tp462
sS'66@-######################'
p463
(I74
S'GCG'
tp464
sS'B@<<######################'
p465
(I15
S'CTC'
tp466
sS'-@@@######################'
p467
(I48
S'GGC'
tp468
sS'8A--######################'
p469
(I64
S'TCA'
tp470
sS'6--<######################'
p471
(I57
S'AAC'
tp472
sS'A<<@######################'
p473
(I11
S'GTA'
tp474
sS'<CA-######################'
p475
(I25
S'CCA'
tp476
sS'-AC-######################'
p477
(I17
S'CGA'
tp478
sS'8B@-######################'
p479
(I15
S'AGA'
tp480
sS'-AA<######################'
p481
(I54
S'AGG'
tp482
sS'@B@9######################'
p483
(I60
S'TCC'
tp484
sS'C@C@######################'
p485
(I15
S'TTC'
tp486
sS'AB66######################'
p487
(I20
S'GGG'
tp488
sS'ACTTNNNNNNNNNNNNNNNNNNNNNN'
p489
(I6
S'TTC'
tp490
sS'-<88######################'
p491
(I0
g97
tp492
sS'<8@B######################'
p493
(I69
S'CAG'
tp494
sS'-A96######################'
p495
(I38
S'GGG'
tp496
sS'-66@######################'
p497
(I18
S'CCA'
tp498
sS'AB-6######################'
p499
(I26
S'AAG'
tp500
sS'BC9<######################'
p501
(I6
S'ATC'
tp502
sS'-BCC######################'
p503
(I2
S'GGA'
tp504
sS'68-<######################'
p505
(I27
S'ATA'
tp506
sS'<@-9######################'
p507
(I37
S'CCA'
tp508
sS'9C<B######################'
p509
(I42
S'GGT'
tp510
sS'CC<B######################'
p511
(I61
S'TAC'
tp512
sS'@8--######################'
p513
(I73
S'GAC'
tp514
sS'@C<C######################'
p515
(I54
S'GGG'
tp516
sS'@C<<######################'
p517
(I15
S'TCG'
tp518
sS'TCGCNNNNNNNNNNNNNNNNNNNNNN'
p519
(I69
S'TGC'
tp520
sS'@-AA######################'
p521
(I22
S'AGC'
tp522
sS'CC<C######################'
p523
(I5
S'CCC'
tp524
sS'AC@C######################'
p525
(I2
S'GCG'
tp526
sS'<C@9######################'
p527
(I54
S'TTT'
tp528
sS'AA--######################'
p529
(I42
S'TTT'
tp530
sS'@A99######################'
p531
(I60
S'AAA'
tp532
sS'ACTGNNNNNNNNNNNNNNNNNNNNNN'
p533
(I28
S'ATT'
tp534
sS'8-AC######################'
p535
(I57
S'CCG'
tp536
sS'B6A<######################'
p537
(I56
S'GCG'
tp538
sS'CC@A######################'
p539
(I36
S'AAC'
tp540
sS'-@<C######################'
p541
(I3
S'AGG'
tp542
sS'A-6-######################'
p543
(I34
S'GCG'
tp544
sS'AA@A######################'
p545
(I7
S'AGA'
tp546
sS'-68B######################'
p547
(I27
S'AAT'
tp548
sS'---8######################'
p549
(I72
S'TTT'
tp550
sS'-BB9######################'
p551
(I27
S'TGA'
tp552
sS'C@C<######################'
p553
(I4
S'GAT'
tp554
sS'<8C-######################'
p555
(I56
S'GCA'
tp556
sS'-89A######################'
p557
(I28
S'TAG'
tp558
sS'--6-######################'
p559
(I75
S'GAA'
tp560
sS'8AA9######################'
p561
(I76
S'TGA'
tp562
sS'-@B@######################'
p563
(I41
S'CCG'
tp564
sS'@AA-######################'
p565
(I53
S'GCC'
tp566
sS'@A66######################'
p567
(I2
S'ACA'
tp568
sS'B6--######################'
p569
(I19
S'GTA'
tp570
sS'88@B######################'
p571
(I10
S'CGA'
tp572
sS'B@@-######################'
p573
(I0
g97
tp574
sS'AC<-######################'
p575
(I2
S'ACC'
tp576
sS'A88-######################'
p577
(I27
S'AGG'
tp578
sS'@--A######################'
p579
(I13
S'CAA'
tp580
sS'<C<B######################'
p581
(I42
S'TGA'
tp582
sS'@A-6######################'
p583
(I64
S'GTG'
tp584
sS'8888######################'
p585
(I0
g97
tp586
sS'6A-8######################'
p587
(I33
S'GAC'
tp588
sS'-AAB######################'
p589
(I38
S'ATA'
tp590
sS'CC@B######################'
p591
(I49
S'GGC'
tp592
sS'866-######################'
p593
(I31
S'GCC'
tp594
sS'8<<-######################'
p595
(I69
S'CGA'
tp596
sS'-CCC######################'
p597
(I60
S'TTC'
tp598
sS'ACC@######################'
p599
(I38
S'TTG'
tp600
sS'@B--######################'
p601
(I48
S'GAA'
tp602
sS'AAC<######################'
p603
(I57
S'AGT'
tp604
sS'6@96######################'
p605
(I57
S'CCG'
tp606
sS'9C?<######################'
p607
(I33
S'CGC'
tp608
sS'-6@6######################'
p609
(I41
S'CAC'
tp610
sS'6--8######################'
p611
(I3
S'AGG'
tp612
sS'B<--######################'
p613
(I8
S'TAT'
tp614
sS'@A9-######################'
p615
(I16
S'ACT'
tp616
sS'CATCNNNNNNNNNNNNNNNNNNNNNN'
p617
(I28
S'TAA'
tp618
sS'8--8######################'
p619
(I23
S'GGC'
tp620
sS'B8AC######################'
p621
(I25
S'GTT'
tp622
sS'C-B9######################'
p623
(I66
S'AGT'
tp624
sS'--A-######################'
p625
(I69
S'TGA'
tp626
sS'AGTCNNNNNNNNNNNNNNNNNNNNNN'
p627
(I26
S'GGG'
tp628
sS'8C6-######################'
p629
(I58
S'GGG'
tp630
sS'AGTGNNNNNNNNNNNNNNNNNNNNNN'
p631
(I71
S'CCC'
tp632
sS'68@6######################'
p633
(I31
S'GCC'
tp634
sS'6ACC######################'
p635
(I18
S'ATG'
tp636
sS'-B<8######################'
p637
(I61
S'TGC'
tp638
sS'6C-8######################'
p639
(I44
S'CGG'
tp640
sS'@@<-######################'
p641
(I2
S'ACC'
tp642
sS'<@B-######################'
p643
(I18
S'GCA'
tp644
sS'<@-6######################'
p645
(I23
S'ATG'
tp646
sS'TCTANNNNNNNNNNNNNNNNNNNNNN'
p647
(I55
S'TCC'
tp648
sS'8AA-######################'
p649
(I75
S'GCG'
tp650
sS'C@@6######################'
p651
(I28
S'TGG'
tp652
sS'-<9@######################'
p653
(I19
S'TGT'
tp654
sS'B@9-######################'
p655
(I18
S'TCA'
tp656
sS'8A@<######################'
p657
(I72
S'GAT'
tp658
sS'8<-6######################'
p659
(I30
S'CCT'
tp660
sS'6CCC######################'
p661
(I53
S'GAT'
tp662
sS'@<<9######################'
p663
(I38
S'GGG'
tp664
sS'6@-8######################'
p665
(I66
S'CTA'
tp666
sS'ABB<######################'
p667
(I69
S'GAT'
tp668
sS'6B-6######################'
p669
(I46
S'ATG'
tp670
sS'A-88######################'
p671
(I59
S'CTC'
tp672
sS'<@9-######################'
p673
(I2
S'ACA'
tp674
sS'C@CC######################'
p675
(I3
S'CAT'
tp676
sS'6-A6######################'
p677
(I67
S'ACA'
tp678
sS'BC-B######################'
p679
(I0
g97
tp680
sS'6-AB######################'
p681
(I51
S'TAT'
tp682
sS'A@9-######################'
p683
(I41
S'CTT'
tp684
sS'---A######################'
p685
(I54
S'GAC'
tp686
sS'-66-######################'
p687
(I72
S'CGG'
tp688
sS'CBC@######################'
p689
(I27
S'TAC'
tp690
sS'-A-A######################'
p691
(I24
S'GCT'
tp692
sS'9A<<######################'
p693
(I6
S'TCC'
tp694
sS'B9<@######################'
p695
(I66
S'GGT'
tp696
sS'-A-<######################'
p697
(I55
S'AGC'
tp698
sS'8A<@######################'
p699
(I17
S'TTG'
tp700
sS'AC@9######################'
p701
(I20
S'GAC'
tp702
sS'<A@9######################'
p703
(I49
S'GGT'
tp704
sS'CA9A######################'
p705
(I3
S'CAG'
tp706
sS'BCA-######################'
p707
(I44
S'CAT'
tp708
sS'<C-A######################'
p709
(I11
S'CTA'
tp710
sS'-8AB######################'
p711
(I46
S'TAG'
tp712
sS'@86-######################'
p713
(I76
S'GGG'
tp714
sS'8<66######################'
p715
(I71
S'GGG'
tp716
sS'8@-6######################'
p717
(I52
S'GTT'
tp718
sS'AC96######################'
p719
(I37
S'GAG'
tp720
sS'C99B######################'
p721
(I53
S'AGA'
tp722
sS'A<@-######################'
p723
(I71
S'TTT'
tp724
sS'8-A9######################'
p725
(I20
S'GCA'
tp726
sS'8-@-######################'
p727
(I48
S'CAG'
tp728
sS'A<A-######################'
p729
(I45
S'GAA'
tp730
sS'6AC-######################'
p731
(I55
S'AGG'
tp732
sS'GCTGNNNNNNNNNNNNNNNNNNNNNN'
p733
(I64
S'GGT'
tp734
sS'-A-9######################'
p735
(I22
S'ACA'
tp736
sS'C9CC######################'
p737
(I76
S'CCC'
tp738
sS'@9@@######################'
p739
(I68
S'TCT'
tp740
sS'-B<-######################'
p741
(I5
S'GAG'
tp742
sS'TAAGNNNNNNNNNNNNNNNNNNNNNN'
p743
(I6
S'CGC'
tp744
sS'86-A######################'
p745
(I41
S'GCG'
tp746
sS'-8@8######################'
p747
(I42
S'CCT'
tp748
sS'@C9-######################'
p749
(I2
S'GAG'
tp750
sS'C@@C######################'
p751
(I61
S'GGG'
tp752
sS'68C<######################'
p753
(I54
S'GAT'
tp754
sS'-8-<######################'
p755
(I58
S'GGC'
tp756
sS'ABC-######################'
p757
(I56
S'TGT'
tp758
sS'8-86######################'
p759
(I64
S'CTA'
tp760
sS'68A<######################'
p761
(I22
S'CTC'
tp762
sS'CC9B######################'
p763
(I63
S'CAT'
tp764
sS'86-@######################'
p765
(I61
S'CTA'
tp766
sS'CGTCNNNNNNNNNNNNNNNNNNNNNN'
p767
(I25
S'CGA'
tp768
sS'BC<6######################'
p769
(I10
S'CTT'
tp770
sS'-@<8######################'
p771
(I49
S'GTG'
tp772
sS'6A8-######################'
p773
(I49
S'CTA'
tp774
sS'6B-@######################'
p775
(I24
S'TTA'
tp776
sS'68<-######################'
p777
(I36
S'ACC'
tp778
sS'A@-@######################'
p779
(I10
S'AAG'
tp780
sS'--6<######################'
p781
(I56
S'GAG'
tp782
sS'-A@9######################'
p783
(I28
S'CGG'
tp784
sS'<ABC######################'
p785
(I74
S'CCG'
tp786
sS'A886######################'
p787
(I10
S'CTT'
tp788
sS'868-######################'
p789
(I63
S'TTT'
tp790
sS'6-66######################'
p791
(I40
S'TAG'
tp792
sS'CBC9######################'
p793
(I52
S'AGG'
tp794
sS'-AC@######################'
p795
(I73
S'ATA'
tp796
sS'<BC-######################'
p797
(I39
S'CGG'
tp798
sS'6B<C######################'
p799
(I56
S'CCG'
tp800
sS'@A<@######################'
p801
(I74
S'TGG'
tp802
sS'-<8A######################'
p803
(I67
S'GGG'
tp804
sS'A8@-######################'
p805
(I66
S'CCG'
tp806
sS'<AB-######################'
p807
(I49
S'TCC'
tp808
sS'@86A######################'
p809
(I63
S'ACT'
tp810
sS'A8@@######################'
p811
(I51
S'TCT'
tp812
sS'9@B9######################'
p813
(I76
S'GCC'
tp814
sS'B@8<######################'
p815
(I33
S'CCC'
tp816
sS'-A<A######################'
p817
(I76
S'AGT'
tp818
sS'TCAANNNNNNNNNNNNNNNNNNNNNN'
p819
(I14
S'CCC'
tp820
sS'89@-######################'
p821
(I31
S'TCC'
tp822
sS'8A@C######################'
p823
(I53
S'TTC'
tp824
sS'-6-A######################'
p825
(I38
S'AAA'
tp826
sS'-BC<######################'
p827
(I10
S'ACT'
tp828
sS'-886######################'
p829
(I19
S'AAT'
tp830
sS'-A<B######################'
p831
(I37
S'TTT'
tp832
sS'-<6A######################'
p833
(I35
S'AGA'
tp834
sS'886@######################'
p835
(I47
S'CAT'
tp836
sS'-889######################'
p837
(I30
S'ACT'
tp838
sS'AB6C######################'
p839
(I57
S'ACG'
tp840
sS'<<C@######################'
p841
(I59
S'GAG'
tp842
sS'8C<-######################'
p843
(I41
S'GCC'
tp844
sS'6B6-######################'
p845
(I54
S'CCC'
tp846
sS'-@--######################'
p847
(I58
S'CCC'
tp848
sS'88A8######################'
p849
(I61
S'CGA'
tp850
sS'-@6@######################'
p851
(I10
S'AGA'
tp852
sS'9C<C######################'
p853
(I0
g97
tp854
sS'-<86######################'
p855
(I18
S'TGC'
tp856
sS'8CB@######################'
p857
(I26
S'CAA'
tp858
sS'A8A6######################'
p859
(I53
S'GCG'
tp860
sS'88-8######################'
p861
(I37
S'GTG'
tp862
sS'-8<8######################'
p863
(I44
S'GCG'
tp864
sS'CCTANNNNNNNNNNNNNNNNNNNNNN'
p865
(I30
S'CAC'
tp866
sS'88-A######################'
p867
(I27
S'CAG'
tp868
sS'68@A######################'
p869
(I12
S'CCC'
tp870
sS'TGTGNNNNNNNNNNNNNNNNNNNNNN'
p871
(I13
S'GGA'
tp872
sS'-B9C######################'
p873
(I70
S'ACC'
tp874
sS'6C--######################'
p875
(I5
S'CCG'
tp876
sS'C@-6######################'
p877
(I58
S'CGA'
tp878
sS'BC@@######################'
p879
(I33
S'GGT'
tp880
sS'8AA@######################'
p881
(I4
S'ATC'
tp882
sS'A6A-######################'
p883
(I16
S'GCC'
tp884
sS'68--######################'
p885
(I65
S'GAG'
tp886
sS'8B@A######################'
p887
(I55
S'ACA'
tp888
sS'CC9-######################'
p889
(I17
S'ACA'
tp890
sS'66-6######################'
p891
(I28
S'GCC'
tp892
sS'689-######################'
p893
(I0
g97
tp894
sS'A@@@######################'
p895
(I24
S'TAG'
tp896
sS'888A######################'
p897
(I66
S'CCC'
tp898
sS'8A6B######################'
p899
(I16
S'ACC'
tp900
sS'66B-######################'
p901
(I22
S'TAT'
tp902
sS'-@6A######################'
p903
(I55
S'CCT'
tp904
sS'@6B@######################'
p905
(I4
S'GGC'
tp906
sS'CCB-######################'
p907
(I35
S'TAA'
tp908
sS'6A@6######################'
p909
(I10
S'TTA'
tp910
sS'8@AA######################'
p911
(I0
g97
tp912
sS'8<B-######################'
p913
(I75
S'CCT'
tp914
sS'-BBC######################'
p915
(I60
S'TTC'
tp916
sS'A<-8######################'
p917
(I0
g97
tp918
sS'688-######################'
p919
(I61
S'GAT'
tp920
sS'CGTANNNNNNNNNNNNNNNNNNNNNN'
p921
(I74
S'GTG'
tp922
sS'8@88######################'
p923
(I16
S'CCG'
tp924
sS'<@BC######################'
p925
(I50
S'CAA'
tp926
sS'AC@-######################'
p927
(I13
S'GAG'
tp928
sS'B9<-######################'
p929
(I3
S'GGG'
tp930
sS'A<@C######################'
p931
(I32
S'CGA'
tp932
sS'88@<######################'
p933
(I38
S'GGG'
tp934
sS'BA-B######################'
p935
(I20
S'GTT'
tp936
sS'--<-######################'
p937
(I20
S'GGC'
tp938
sS'86--######################'
p939
(I11
S'TCA'
tp940
sS'-A99######################'
p941
(I15
S'GGG'
tp942
sS'8C@-######################'
p943
(I46
S'CCG'
tp944
sS'@6A-######################'
p945
(I31
S'GCC'
tp946
sS'@9BC######################'
p947
(I37
S'CAT'
tp948
sS'-@B-######################'
p949
(I69
S'GGT'
tp950
sS'6<C-######################'
p951
(I64
S'TTG'
tp952
sS'--68######################'
p953
(I46
S'AAA'
tp954
sS'8BC6######################'
p955
(I20
S'GGA'
tp956
sS'@C-8######################'
p957
(I4
S'CAC'
tp958
sS'8--6######################'
p959
(I54
S'TAA'
tp960
sS'-6<<######################'
p961
(I9
S'CCG'
tp962
sS'<6@9######################'
p963
(I24
S'CTT'
tp964
sS'TATANNNNNNNNNNNNNNNNNNNNNN'
p965
(I27
S'GCC'
tp966
sS'<B@<######################'
p967
(I39
S'CCC'
tp968
sS'-AB<######################'
p969
(I42
S'CCA'
tp970
sS'8A@A######################'
p971
(I64
S'CGC'
tp972
sS'AGACNNNNNNNNNNNNNNNNNNNNNN'
p973
(I35
S'CGA'
tp974
sS'AA@8######################'
p975
(I49
S'GCG'
tp976
sS'C@C9######################'
p977
(I0
g97
tp978
sS'AACA######################'
p979
(I25
S'CAC'
tp980
sS'6<-A######################'
p981
(I0
g97
tp982
sS'-B6-######################'
p983
(I29
S'CAT'
tp984
sS'----######################'
p985
(I46
S'AAT'
tp986
sS'--8<######################'
p987
(I39
S'ACA'
tp988
sS'<CBB######################'
p989
(I52
S'GAT'
tp990
sS'6<-@######################'
p991
(I20
S'CCC'
tp992
sS'CC-@######################'
p993
(I18
S'TTC'
tp994
sS'-@A@######################'
p995
(I75
S'AAA'
tp996
sS'6@6-######################'
p997
(I18
S'GAC'
tp998
sS'-8B<######################'
p999
(I28
S'TGC'
tp1000
sS'-6@@######################'
p1001
(I72
S'TTC'
tp1002
sS'6B@-######################'
p1003
(I53
S'GGC'
tp1004
sS'<A<C######################'
p1005
(I47
S'GGG'
tp1006
sS'8<6-######################'
p1007
(I71
S'TGT'
tp1008
sS'-6A8######################'
p1009
(I65
S'TGA'
tp1010
sS'--@-######################'
p1011
(I25
S'CTG'
tp1012
sS'9C@-######################'
p1013
(I54
S'ACC'
tp1014
sS'ABA-######################'
p1015
(I10
S'GGC'
tp1016
sS'C9<9######################'
p1017
(I22
S'TGG'
tp1018
sS'8-6-######################'
p1019
(I63
S'GAG'
tp1020
sS'-@@A######################'
p1021
(I4
S'CGT'
tp1022
sS'-A@C######################'
p1023
(I37
S'CAA'
tp1024
sS'88AA######################'
p1025
(I51
S'GCA'
tp1026
sS'6--6######################'
p1027
(I40
S'TTC'
tp1028
sS'<86A######################'
p1029
(I70
S'ACG'
tp1030
sS'6<8-######################'
p1031
(I23
S'TGA'
tp1032
sS'868@######################'
p1033
(I19
S'ATT'
tp1034
sS'86A-######################'
p1035
(I9
S'CCC'
tp1036
sS'@AB@######################'
p1037
(I19
S'GCG'
tp1038
sS'<<BC######################'
p1039
(I9
S'TTC'
tp1040
sS'B98<######################'
p1041
(I30
S'GCC'
tp1042
sS'A<B-######################'
p1043
(I62
S'TTC'
tp1044
sS'@A@-######################'
p1045
(I0
g97
tp1046
sS'A@@9######################'
p1047
(I16
S'TAA'
tp1048
sS'@8A<######################'
p1049
(I35
S'AAG'
tp1050
sS'-A<@######################'
p1051
(I27
S'AAC'
tp1052
sS'-8B9######################'
p1053
(I19
S'GAA'
tp1054
sS'A<@<######################'
p1055
(I73
S'TGT'
tp1056
sS'<C<-######################'
p1057
(I52
S'TTC'
tp1058
sS'86-8######################'
p1059
(I44
S'GAC'
tp1060
sS'BC9B######################'
p1061
(I25
S'GCC'
tp1062
sS'BC9@######################'
p1063
(I41
S'TGG'
tp1064
sS'68AA######################'
p1065
(I43
S'ATC'
tp1066
sS'-A<9######################'
p1067
(I65
S'CCC'
tp1068
sS'-6@<######################'
p1069
(I64
S'CAG'
tp1070
sS'CATGNNNNNNNNNNNNNNNNNNNNNN'
p1071
(I55
S'GCG'
tp1072
sS'-@A-######################'
p1073
(I33
S'CGC'
tp1074
sS'-686######################'
p1075
(I62
S'ATC'
tp1076
sS'AA96######################'
p1077
(I9
S'GCA'
tp1078
sS'AC6A######################'
p1079
(I56
S'GGC'
tp1080
sS'-@<@######################'
p1081
(I55
S'AAC'
tp1082
sS'---@######################'
p1083
(I69
S'TTC'
tp1084
sS'<<9<######################'
p1085
(I65
S'CTC'
tp1086
sS'<6--######################'
p1087
(I28
S'CTG'
tp1088
sS'A9A@######################'
p1089
(I40
S'TCC'
tp1090
sS'6A8@######################'
p1091
(I46
S'AAC'
tp1092
sS'AC8-######################'
p1093
(I33
S'TCC'
tp1094
sS'-8BC######################'
p1095
(I0
g97
tp1096
sS'<9B<######################'
p1097
(I8
S'AGA'
tp1098
sS'6<B-######################'
p1099
(I44
S'CCA'
tp1100
sS'8<-8######################'
p1101
(I5
S'CAT'
tp1102
sS'A68<######################'
p1103
(I38
S'GGG'
tp1104
sS'6CC@######################'
p1105
(I56
S'CCA'
tp1106
sS'B8C<######################'
p1107
(I50
S'AGG'
tp1108
sS'AA@6######################'
p1109
(I53
S'CGT'
tp1110
sS'AAC-######################'
p1111
(I69
S'GCG'
tp1112
sS'8A9-######################'
p1113
(I37
S'GGC'
tp1114
sS'8<@<######################'
p1115
(I52
S'GGG'
tp1116
sS'BCAC######################'
p1117
(I44
S'GAC'
tp1118
sS'A@-6######################'
p1119
(I0
g97
tp1120
sS'@C9C######################'
p1121
(I11
S'CTC'
tp1122
sS'@--@######################'
p1123
(I33
S'AGT'
tp1124
sS'<C--######################'
p1125
(I27
S'ACC'
tp1126
sS'CC99######################'
p1127
(I8
S'TAA'
tp1128
sS'-A-@######################'
p1129
(I5
S'CCC'
tp1130
sS'B-6@######################'
p1131
(I49
S'GGC'
tp1132
sS'-6-8######################'
p1133
(I74
S'GGG'
tp1134
sS'CC<@######################'
p1135
(I33
S'GTC'
tp1136
sS'868A######################'
p1137
(I28
S'CCC'
tp1138
sS'@8-6######################'
p1139
(I33
S'GCA'
tp1140
sS'<@C<######################'
p1141
(I64
S'CGC'
tp1142
sS'BCC@######################'
p1143
(I2
S'GGC'
tp1144
sS'@@9@######################'
p1145
(I41
S'ACT'
tp1146
sS'A-A-######################'
p1147
(I13
S'CGT'
tp1148
sS'CCB9######################'
p1149
(I27
S'TAC'
tp1150
sS'6C@-######################'
p1151
(I60
S'TTC'
tp1152
sS'@B96######################'
p1153
(I18
S'GAC'
tp1154
sS'B9--######################'
p1155
(I21
S'TGT'
tp1156
sS'-B-8######################'
p1157
(I69
S'GTA'
tp1158
sS'8@@-######################'
p1159
(I23
S'GCT'
tp1160
sS'TACGNNNNNNNNNNNNNNNNNNNNNN'
p1161
(I73
S'GAA'
tp1162
sS'-6@B######################'
p1163
(I75
S'CCC'
tp1164
sS'<C9-######################'
p1165
(I37
S'CCG'
tp1166
sS'A8A<######################'
p1167
(I65
S'ACG'
tp1168
sS'668B######################'
p1169
(I51
S'GTA'
tp1170
sS'@-@B######################'
p1171
(I64
S'TAA'
tp1172
sS'-<-@######################'
p1173
(I62
S'GTT'
tp1174
sS'8B6-######################'
p1175
(I8
S'AAT'
tp1176
sS'-C<B######################'
p1177
(I45
S'TAA'
tp1178
sS'8A<-######################'
p1179
(I25
S'TAG'
tp1180
sS'-8@A######################'
p1181
(I73
S'TTT'
tp1182
sS'-8<A######################'
p1183
(I66
S'CTC'
tp1184
sS'6@@@######################'
p1185
(I32
S'AGG'
tp1186
sS'8<BC######################'
p1187
(I2
S'AAC'
tp1188
sS'ACB-######################'
p1189
(I44
S'TGC'
tp1190
sS'6<--######################'
p1191
(I20
S'CAT'
tp1192
sS'-@-A######################'
p1193
(I57
S'GAC'
tp1194
sS'@C-6######################'
p1195
(I62
S'CGG'
tp1196
sS'<6A6######################'
p1197
(I36
S'GGT'
tp1198
sS'B@-6######################'
p1199
(I51
S'CTG'
tp1200
sS'-@<-######################'
p1201
(I22
S'GGC'
tp1202
sS'6-@6######################'
p1203
(I74
S'CCA'
tp1204
sS'ACAGNNNNNNNNNNNNNNNNNNNNNN'
p1205
(I68
S'TGC'
tp1206
sS'A@6@######################'
p1207
(I57
S'GTG'
tp1208
sS'--8@######################'
p1209
(I43
S'AGT'
tp1210
sS'@C@-######################'
p1211
(I4
S'ATA'
tp1212
sS'<CC9######################'
p1213
(I75
S'CTC'
tp1214
sS'8C9@######################'
p1215
(I55
S'CCC'
tp1216
sS'6B8A######################'
p1217
(I41
S'CGA'
tp1218
sS'A@6A######################'
p1219
(I74
S'GAA'
tp1220
sS'CC<A######################'
p1221
(I53
S'CGG'
tp1222
sS'86<-######################'
p1223
(I34
S'TTG'
tp1224
sS'-@6B######################'
p1225
(I3
S'CGG'
tp1226
sS'C?<@######################'
p1227
(I32
S'GGT'
tp1228
sS'A-A@######################'
p1229
(I41
S'TGG'
tp1230
sS'6A@<######################'
p1231
(I41
S'TGA'
tp1232
sS'GATCNNNNNNNNNNNNNNNNNNNNNN'
p1233
(I13
S'CAC'
tp1234
sS'AC99######################'
p1235
(I50
S'GGC'
tp1236
sS'6AB9######################'
p1237
(I65
S'GCG'
tp1238
sS'@C-A######################'
p1239
(I0
g97
tp1240
sS'C@@B######################'
p1241
(I70
S'TCA'
tp1242
sS'96-@######################'
p1243
(I4
S'GAC'
tp1244
sS'GACGNNNNNNNNNNNNNNNNNNNNNN'
p1245
(I71
S'ACC'
tp1246
sS'AC6@######################'
p1247
(I10
S'AAT'
tp1248
sS'-68@######################'
p1249
(I73
S'CAG'
tp1250
sS'666-######################'
p1251
(I33
S'GGG'
tp1252
sS'9<<@######################'
p1253
(I38
S'GTC'
tp1254
sS'BA8A######################'
p1255
(I75
S'GAG'
tp1256
sS'99@A######################'
p1257
(I0
g97
tp1258
sS'-B@-######################'
p1259
(I25
S'TGA'
tp1260
sS'<<8A######################'
p1261
(I21
S'GTC'
tp1262
sS'ACTCNNNNNNNNNNNNNNNNNNNNNN'
p1263
(I13
S'CAG'
tp1264
sS'88@8######################'
p1265
(I60
S'CCT'
tp1266
sS'6<A-######################'
p1267
(I18
S'CTC'
tp1268
sS'<A-C######################'
p1269
(I61
S'ATA'
tp1270
sS'6@@-######################'
p1271
(I25
S'ACG'
tp1272
sS'AAA9######################'
p1273
(I51
S'CTG'
tp1274
sS'BA<6######################'
p1275
(I65
S'TTG'
tp1276
sS'--6A######################'
p1277
(I38
S'GTG'
tp1278
sS'@C6-######################'
p1279
(I39
S'AGA'
tp1280
sS'8C-8######################'
p1281
(I72
S'CGT'
tp1282
sS'<B@-######################'
p1283
(I48
S'GTC'
tp1284
sS'BB@-######################'
p1285
(I64
S'GGA'
tp1286
sS'6<-8######################'
p1287
(I6
S'TCG'
tp1288
sS'@CC9######################'
p1289
(I14
S'CAC'
tp1290
sS'-@66######################'
p1291
(I9
S'GAT'
tp1292
sS'<C@C######################'
p1293
(I72
S'TAT'
tp1294
sS'BB96######################'
p1295
(I28
S'CAG'
tp1296
sS'@@66######################'
p1297
(I6
S'TGA'
tp1298
sS'888-######################'
p1299
(I64
S'CCC'
tp1300
sS'AABC######################'
p1301
(I23
S'CCT'
tp1302
sS'886A######################'
p1303
(I0
g97
tp1304
sS'-C@9######################'
p1305
(I29
S'TGT'
tp1306
sS'<A68######################'
p1307
(I64
S'TCG'
tp1308
sS'A@<-######################'
p1309
(I5
S'GTG'
tp1310
sS'CC<9######################'
p1311
(I17
S'GGC'
tp1312
sS'A@9@######################'
p1313
(I54
S'ACC'
tp1314
sS'668A######################'
p1315
(I3
S'GGA'
tp1316
sS'AAC@######################'
p1317
(I53
S'GCG'
tp1318
sS'-8@-######################'
p1319
(I53
S'GAT'
tp1320
sS'@-@A######################'
p1321
(I20
S'GAT'
tp1322
sS'-8A-######################'
p1323
(I64
S'CTG'
tp1324
sS'A<6-######################'
p1325
(I56
S'AGA'
tp1326
sS'6@@B######################'
p1327
(I6
S'CTG'
tp1328
sS'66-8######################'
p1329
(I48
S'TAC'
tp1330
sS'8-66######################'
p1331
(I68
S'TAA'
tp1332
sS'CCCCNNNNNNNNNNNNNNNNNNNNNN'
p1333
(I31
S'ATG'
tp1334
sS'88B-######################'
p1335
(I13
S'CGT'
tp1336
sS'TACCNNNNNNNNNNNNNNNNNNNNNN'
p1337
(I24
S'GAA'
tp1338
sS'666A######################'
p1339
(I75
S'GCG'
tp1340
sS'A8@C######################'
p1341
(I35
S'CCC'
tp1342
sS'A8@8######################'
p1343
(I9
S'AGG'
tp1344
sS'66@<######################'
p1345
(I48
S'GAT'
tp1346
sS'6C@@######################'
p1347
(I4
S'GGT'
tp1348
sS'8B-6######################'
p1349
(I12
S'TCG'
tp1350
sS'C<A9######################'
p1351
(I9
S'GCT'
tp1352
sS'8<8<######################'
p1353
(I18
S'AAT'
tp1354
sS'BC--######################'
p1355
(I64
S'CCG'
tp1356
sS'BB6-######################'
p1357
(I68
S'GAG'
tp1358
sS'@6CC######################'
p1359
(I64
S'CAC'
tp1360
sS'AGAANNNNNNNNNNNNNNNNNNNNNN'
p1361
(I0
g97
tp1362
sS'@<-8######################'
p1363
(I35
S'AGG'
tp1364
sS'6-8A######################'
p1365
(I55
S'TAC'
tp1366
sS'A8<C######################'
p1367
(I34
S'ACC'
tp1368
sS'AA6-######################'
p1369
(I21
S'TTC'
tp1370
sS'CGAANNNNNNNNNNNNNNNNNNNNNN'
p1371
(I10
S'TGT'
tp1372
sS'<C99######################'
p1373
(I46
S'AGT'
tp1374
sS'89--######################'
p1375
(I40
S'TGC'
tp1376
sS'--86######################'
p1377
(I49
S'GTC'
tp1378
sS'AATGNNNNNNNNNNNNNNNNNNNNNN'
p1379
(I49
S'GCC'
tp1380
sS'-@CC######################'
p1381
(I46
S'GTC'
tp1382
sS'A88<######################'
p1383
(I37
S'TAT'
tp1384
sS'<A9@######################'
p1385
(I64
S'GCA'
tp1386
sS'GACCNNNNNNNNNNNNNNNNNNNNNN'
p1387
(I8
S'ATT'
tp1388
sS'8@@6######################'
p1389
(I28
S'GGA'
tp1390
sS'6---######################'
p1391
(I33
S'ACC'
tp1392
sS'CC-C######################'
p1393
(I72
S'TTT'
tp1394
sS'-<@-######################'
p1395
(I71
S'TAT'
tp1396
sS'-86-######################'
p1397
(I24
S'CCA'
tp1398
sS'9BAC######################'
p1399
(I72
S'GTG'
tp1400
sS'-B@C######################'
p1401
(I47
S'CAT'
tp1402
sS'@A@B######################'
p1403
(I28
S'CAA'
tp1404
sS'6A-6######################'
p1405
(I27
S'GAA'
tp1406
sS'A@<8######################'
p1407
(I41
S'GAT'
tp1408
sS'A@<@######################'
p1409
(I22
S'GGA'
tp1410
sS'AC-6######################'
p1411
(I28
S'CAC'
tp1412
sS'-@-@######################'
p1413
(I51
S'CAC'
tp1414
sS'6C-6######################'
p1415
(I26
S'CAT'
tp1416
sS'8A<6######################'
p1417
(I46
S'TGG'
tp1418
sS'ACCCNNNNNNNNNNNNNNNNNNNNNN'
p1419
(I67
S'TAC'
tp1420
sS'6A6@######################'
p1421
(I70
S'ATT'
tp1422
sS'CC96######################'
p1423
(I31
S'GCA'
tp1424
sS'C9A-######################'
p1425
(I60
S'ACA'
tp1426
sS'8C8-######################'
p1427
(I59
S'ACG'
tp1428
sS'@B6-######################'
p1429
(I48
S'GGG'
tp1430
sS'AA-A######################'
p1431
(I17
S'TAG'
tp1432
sS'AA6A######################'
p1433
(I23
S'CAG'
tp1434
sS'B<6-######################'
p1435
(I48
S'GAT'
tp1436
sS'9A@C######################'
p1437
(I35
S'TCT'
tp1438
sS'6866######################'
p1439
(I71
S'ATT'
tp1440
sS'<9<6######################'
p1441
(I60
S'CCA'
tp1442
sS'-@6<######################'
p1443
(I74
S'TAG'
tp1444
sS'<CC@######################'
p1445
(I13
S'GAC'
tp1446
sS'@CB9######################'
p1447
(I22
S'CGG'
tp1448
sS'6<<-######################'
p1449
(I41
S'GCA'
tp1450
sS'-8<C######################'
p1451
(I19
S'GGC'
tp1452
sS'-@C<######################'
p1453
(I52
S'CGC'
tp1454
sS'-B<B######################'
p1455
(I65
S'GTT'
tp1456
sS'CC@-######################'
p1457
(I61
S'GCA'
tp1458
sS'<A@-######################'
p1459
(I57
S'GGG'
tp1460
sS'66@6######################'
p1461
(I70
S'AGA'
tp1462
sS'AC8@######################'
p1463
(I13
S'ACA'
tp1464
sS'-B-6######################'
p1465
(I4
S'ATA'
tp1466
sS'@@-6######################'
p1467
(I65
S'TGA'
tp1468
sS'AB@-######################'
p1469
(I44
S'CCC'
tp1470
sS'-@9-######################'
p1471
(I23
S'GGA'
tp1472
sS'6688######################'
p1473
(I62
S'GGT'
tp1474
sS'6888######################'
p1475
(I0
g97
tp1476
sS'CC-8######################'
p1477
(I34
S'CCC'
tp1478
sS'8<89######################'
p1479
(I24
S'ATA'
tp1480
sS'8A6-######################'
p1481
(I38
S'TGA'
tp1482
sS'88A@######################'
p1483
(I47
S'CCA'
tp1484
sS'B9B6######################'
p1485
(I62
S'GAG'
tp1486
sS'8A6A######################'
p1487
(I35
S'TGC'
tp1488
sS'CCAC######################'
p1489
(I70
S'CGA'
tp1490
sS'AC<@######################'
p1491
(I48
S'CCG'
tp1492
sS'A8-A######################'
p1493
(I24
S'GGA'
tp1494
sS'-<-B######################'
p1495
(I19
S'TGT'
tp1496
sS'6-A-######################'
p1497
(I4
S'GGC'
tp1498
sS'-AC<######################'
p1499
(I43
S'TAT'
tp1500
sS'B<98######################'
p1501
(I70
S'GAG'
tp1502
sS'A<<<######################'
p1503
(I26
S'AAT'
tp1504
sS'@@@-######################'
p1505
(I34
S'GCG'
tp1506
sS'ACCGNNNNNNNNNNNNNNNNNNNNNN'
p1507
(I40
S'GAA'
tp1508
sS'A-@@######################'
p1509
(I16
S'TAA'
tp1510
sS'BAC9######################'
p1511
(I18
S'CCC'
tp1512
sS'@6A9######################'
p1513
(I4
S'AAG'
tp1514
sS'A-8A######################'
p1515
(I41
S'ACT'
tp1516
sS'@6AB######################'
p1517
(I64
S'AGT'
tp1518
sS'6-68######################'
p1519
(I75
S'GTC'
tp1520
sS'BC9-######################'
p1521
(I31
S'GTG'
tp1522
sS'<C-9######################'
p1523
(I67
S'TGT'
tp1524
sS'-@8@######################'
p1525
(I0
g97
tp1526
sS'C<-B######################'
p1527
(I19
S'TTC'
tp1528
sS'8@8-######################'
p1529
(I10
S'AGG'
tp1530
sS'A-66######################'
p1531
(I35
S'GGA'
tp1532
sS'A-@6######################'
p1533
(I14
S'TCA'
tp1534
sS'CCTCNNNNNNNNNNNNNNNNNNNNNN'
p1535
(I4
S'AGT'
tp1536
sS'-A@B######################'
p1537
(I17
S'ATA'
tp1538
sS'<CC-######################'
p1539
(I30
S'CCC'
tp1540
sS'BB--######################'
p1541
(I43
S'GAC'
tp1542
sS'A<66######################'
p1543
(I45
S'AAG'
tp1544
sS'@CBC######################'
p1545
(I26
S'TCC'
tp1546
sS'9BCC######################'
p1547
(I69
S'TAA'
tp1548
sS'A8-@######################'
p1549
(I62
S'AAA'
tp1550
sS'@<@A######################'
p1551
(I58
S'GGG'
tp1552
sS'@9<-######################'
p1553
(I65
S'ATA'
tp1554
sS'B<6A######################'
p1555
(I30
S'GTC'
tp1556
sS'CABC######################'
p1557
(I52
S'GCT'
tp1558
sS'66-@######################'
p1559
(I0
g97
tp1560
sS'88@@######################'
p1561
(I38
S'ACG'
tp1562
sS'@8-A######################'
p1563
(I69
S'TTC'
tp1564
sS'8A8-######################'
p1565
(I59
S'GCC'
tp1566
sS'-@A9######################'
p1567
(I44
S'GGG'
tp1568
sS'8A@9######################'
p1569
(I55
S'CTC'
tp1570
sS'-6AC######################'
p1571
(I43
S'CAC'
tp1572
sS'668<######################'
p1573
(I7
S'CAC'
tp1574
sS'BB6@######################'
p1575
(I14
S'CCG'
tp1576
sS'6@8-######################'
p1577
(I10
S'GAG'
tp1578
sS'BC-@######################'
p1579
(I27
S'ATA'
tp1580
sS'8A6@######################'
p1581
(I28
S'AAT'
tp1582
sS'CC--######################'
p1583
(I61
S'TTA'
tp1584
sS'@8@-######################'
p1585
(I75
S'ACC'
tp1586
sS'8A68######################'
p1587
(I38
S'CAC'
tp1588
sS'6@<@######################'
p1589
(I73
S'GGA'
tp1590
sS'A6-A######################'
p1591
(I26
S'CCA'
tp1592
sS'89-8######################'
p1593
(I27
S'AGT'
tp1594
sS'A<A<######################'
p1595
(I55
S'TGA'
tp1596
sS'-6<B######################'
p1597
(I74
S'GGC'
tp1598
sS'@98-######################'
p1599
(I12
S'TCC'
tp1600
sS'CC9C######################'
p1601
(I67
S'TAT'
tp1602
sS'6-9-######################'
p1603
(I73
S'TGC'
tp1604
sS'@9-<######################'
p1605
(I7
S'ACG'
tp1606
sS'6@C-######################'
p1607
(I7
S'AAG'
tp1608
sS'AB@@######################'
p1609
(I38
S'GAC'
tp1610
sS'AC6B######################'
p1611
(I37
S'AGG'
tp1612
sS'A--8######################'
p1613
(I50
S'CCT'
tp1614
sS'-8B-######################'
p1615
(I33
S'GTC'
tp1616
sS'-866######################'
p1617
(I33
S'CCT'
tp1618
sS'-A88######################'
p1619
(I53
S'GCG'
tp1620
sS'888B######################'
p1621
(I3
S'GGC'
tp1622
sS'8A-<######################'
p1623
(I10
S'CAG'
tp1624
sS'A86-######################'
p1625
(I15
S'GTC'
tp1626
sS'@A@C######################'
p1627
(I14
S'CGA'
tp1628
sS'-C<C######################'
p1629
(I45
S'AGA'
tp1630
sS'C<@-######################'
p1631
(I42
S'TTC'
tp1632
sS'B8<C######################'
p1633
(I7
S'CCT'
tp1634
sS'@<-<######################'
p1635
(I12
S'TAC'
tp1636
sS'-8@<######################'
p1637
(I62
S'CAC'
tp1638
sS'-A<6######################'
p1639
(I24
S'GGG'
tp1640
sS'BAC<######################'
p1641
(I47
S'AGG'
tp1642
sS'CATANNNNNNNNNNNNNNNNNNNNNN'
p1643
(I8
S'CTC'
tp1644
sS'ACC-######################'
p1645
(I4
S'GAA'
tp1646
sS'ACTANNNNNNNNNNNNNNNNNNNNNN'
p1647
(I27
S'GGC'
tp1648
sS'C<A@######################'
p1649
(I3
S'GTG'
tp1650
sS'ACCANNNNNNNNNNNNNNNNNNNNNN'
p1651
(I42
S'ACA'
tp1652
sS'8@68######################'
p1653
(I13
S'CAC'
tp1654
sS'-888######################'
p1655
(I54
S'CCC'
tp1656
sS'866<######################'
p1657
(I76
S'TCG'
tp1658
sS'A@@-######################'
p1659
(I27
S'TAG'
tp1660
sS'6B9B######################'
p1661
(I0
g97
tp1662
sS'-88B######################'
p1663
(I16
S'TGA'
tp1664
sS'B@BC######################'
p1665
(I44
S'GGC'
tp1666
sS'C6-6######################'
p1667
(I2
S'GCC'
tp1668
sS'<<-6######################'
p1669
(I7
S'CGG'
tp1670
sS'-@BB######################'
p1671
(I4
S'TAG'
tp1672
sS'A<<6######################'
p1673
(I58
S'CGG'
tp1674
sS'@CB-######################'
p1675
(I44
S'CCA'
tp1676
sS'--8A######################'
p1677
(I42
S'ACC'
tp1678
sS'-<B<######################'
p1679
(I16
S'TCT'
tp1680
sS'9BBC######################'
p1681
(I49
S'TCC'
tp1682
sS'GACANNNNNNNNNNNNNNNNNNNNNN'
p1683
(I54
S'AAC'
tp1684
sS'BC-A######################'
p1685
(I49
S'GCC'
tp1686
sS'68BA######################'
p1687
(I24
S'AAC'
tp1688
sS'686B######################'
p1689
(I8
S'GGA'
tp1690
sS'<B69######################'
p1691
(I17
S'GTG'
tp1692
sS'@BC-######################'
p1693
(I73
S'GGC'
tp1694
sS'A8A9######################'
p1695
(I44
S'GAC'
tp1696
sS'<<9B######################'
p1697
(I5
S'ACT'
tp1698
sS'-<6-######################'
p1699
(I34
S'GCA'
tp1700
sS'AA@C######################'
p1701
(I23
S'CAA'
tp1702
sS'ABB-######################'
p1703
(I51
S'CTT'
tp1704
sS'AA-6######################'
p1705
(I4
S'GGC'
tp1706
sS'@-86######################'
p1707
(I3
S'AAG'
tp1708
sS'-AB9######################'
p1709
(I49
S'CCC'
tp1710
sS'AACANNNNNNNNNNNNNNNNNNNNNN'
p1711
(I42
S'CGA'
tp1712
sS'AAC6######################'
p1713
(I5
S'TCC'
tp1714
sS'<@<-######################'
p1715
(I14
S'GCA'
tp1716
sS'<B<@######################'
p1717
(I13
S'CTG'
tp1718
sS'@---######################'
p1719
(I59
S'TCC'
tp1720
sS'9C6-######################'
p1721
(I54
S'ATT'
tp1722
sS'-8AA######################'
p1723
(I43
S'GTT'
tp1724
sS'-@@-######################'
p1725
(I7
S'GTT'
tp1726
sS'-<8@######################'
p1727
(I66
S'GTG'
tp1728
sS'69--######################'
p1729
(I3
S'CCT'
tp1730
sS'-A6-######################'
p1731
(I48
S'ACA'
tp1732
sS'A@C9######################'
p1733
(I30
S'CGC'
tp1734
sS'<A6-######################'
p1735
(I42
S'AAT'
tp1736
sS'8868######################'
p1737
(I72
S'ACG'
tp1738
sS'A8-6######################'
p1739
(I22
S'GGG'
tp1740
sS'C@--######################'
p1741
(I30
S'CGT'
tp1742
sS'6A<B######################'
p1743
(I11
S'GCC'
tp1744
sS'-86B######################'
p1745
(I55
S'CTC'
tp1746
sS'-8<6######################'
p1747
(I42
S'CCC'
tp1748
sS'-A8A######################'
p1749
(I71
S'AGG'
tp1750
sS'A8A8######################'
p1751
(I48
S'ACA'
tp1752
sS'6<68######################'
p1753
(I60
S'TGT'
tp1754
sS'A66A######################'
p1755
(I48
S'CAG'
tp1756
sS'AB-8######################'
p1757
(I6
S'TGT'
tp1758
sS'--A8######################'
p1759
(I74
S'CAC'
tp1760
sS'@@B-######################'
p1761
(I3
S'AAC'
tp1762
sS'AC-@######################'
p1763
(I52
S'AAC'
tp1764
sS'BBC9######################'
p1765
(I34
S'TCA'
tp1766
sS'@B-6######################'
p1767
(I70
S'CCG'
tp1768
sS'-A9C######################'
p1769
(I26
S'ATT'
tp1770
sS'-BC-######################'
p1771
(I0
g97
tp1772
sS'C?<<######################'
p1773
(I3
S'GGC'
tp1774
sS'8A-6######################'
p1775
(I13
S'CAG'
tp1776
sS'6AA-######################'
p1777
(I35
S'CTA'
tp1778
sS'-C-<######################'
p1779
(I36
S'GTA'
tp1780
sS'A-8<######################'
p1781
(I66
S'GCT'
tp1782
sS'6868######################'
p1783
(I71
S'AGG'
tp1784
sS'8B-<######################'
p1785
(I65
S'AGC'
tp1786
sS'6A8<######################'
p1787
(I9
S'GGT'
tp1788
sS'<96@######################'
p1789
(I33
S'ACT'
tp1790
sS'A--@######################'
p1791
(I0
g97
tp1792
sS'CC-6######################'
p1793
(I56
S'GGG'
tp1794
sS'C@<9######################'
p1795
(I2
S'GAA'
tp1796
sS'AAATNNNNNNNNNNNNNNNNNNNNNN'
p1797
(I31
S'TCC'
tp1798
sS'8<@C######################'
p1799
(I14
S'ACT'
tp1800
sS'6@@6######################'
p1801
(I33
S'TTC'
tp1802
sS'6C-<######################'
p1803
(I73
S'CAT'
tp1804
sS'-<-6######################'
p1805
(I62
S'TCC'
tp1806
sS'<C<C######################'
p1807
(I42
S'TGG'
tp1808
sS'8-8<######################'
p1809
(I4
S'TTT'
tp1810
sS'<8--######################'
p1811
(I46
S'TGC'
tp1812
sS'@A-@######################'
p1813
(I62
S'ATG'
tp1814
sS'-A9<######################'
p1815
(I15
S'GCG'
tp1816
sS'-@6-######################'
p1817
(I50
S'GGG'
tp1818
sS'8-<<######################'
p1819
(I39
S'TCT'
tp1820
sS'@A<6######################'
p1821
(I33
S'TCC'
tp1822
sS'-@B9######################'
p1823
(I12
S'ATA'
tp1824
sS'<BCC######################'
p1825
(I46
S'ACA'
tp1826
sS'BCCC######################'
p1827
(I54
S'TGC'
tp1828
sS'@A-8######################'
p1829
(I46
S'AAA'
tp1830
sS'A-@-######################'
p1831
(I58
S'GAC'
tp1832
sS'A@6-######################'
p1833
(I72
S'GTT'
tp1834
sS'-668######################'
p1835
(I11
S'TCC'
tp1836
sS'-B9@######################'
p1837
(I68
S'GAT'
tp1838
sS'ACCA######################'
p1839
(I48
S'ACA'
tp1840
sS'<A@@######################'
p1841
(I25
S'TGG'
tp1842
sS'GAACNNNNNNNNNNNNNNNNNNNNNN'
p1843
(I25
S'ACC'
tp1844
sS'GATGNNNNNNNNNNNNNNNNNNNNNN'
p1845
(I57
S'CAG'
tp1846
sS'<CBC######################'
p1847
(I62
S'TTC'
tp1848
sS'AA@-######################'
p1849
(I75
S'ACA'
tp1850
sS'AACCNNNNNNNNNNNNNNNNNNNNNN'
p1851
(I54
S'GAT'
tp1852
sS'68A6######################'
p1853
(I53
S'GCG'
tp1854
sS'8A-@######################'
p1855
(I60
S'GCA'
tp1856
sS'CC9<######################'
p1857
(I27
S'GGC'
tp1858
sS'-B66######################'
p1859
(I15
S'GCT'
tp1860
sS'AB--######################'
p1861
(I74
S'GTA'
tp1862
sS'GATTNNNNNNNNNNNNNNNNNNNNNN'
p1863
(I24
S'ACA'
tp1864
sS'8866######################'
p1865
(I69
S'CGA'
tp1866
sS'AC9B######################'
p1867
(I50
S'GAG'
tp1868
sS'---6######################'
p1869
(I0
g97
tp1870
sS'BC<C######################'
p1871
(I68
S'GAT'
tp1872
sS'8@-A######################'
p1873
(I72
S'TTC'
tp1874
sS'A968######################'
p1875
(I62
S'CTG'
tp1876
sS'8A6<######################'
p1877
(I75
S'CTG'
tp1878
sS'A6@-######################'
p1879
(I24
S'CAA'
tp1880
sS'ACA-######################'
p1881
(I27
S'CGA'
tp1882
sS'@8CC######################'
p1883
(I68
S'TGT'
tp1884
sS'A<@6######################'
p1885
(I30
S'CGA'
tp1886
sS'A866######################'
p1887
(I70
S'TGA'
tp1888
sS'8-A-######################'
p1889
(I35
S'GAC'
tp1890
sS'-A--######################'
p1891
(I74
S'GTT'
tp1892
sS'-A@<######################'
p1893
(I35
S'TGG'
tp1894
sS'6A6-######################'
p1895
(I56
S'GTG'
tp1896
sS'<C@-######################'
p1897
(I34
S'AAT'
tp1898
sS'8688######################'
p1899
(I49
S'TGC'
tp1900
sS'A---######################'
p1901
(I75
S'GTA'
tp1902
sS'-688######################'
p1903
(I65
S'CCT'
tp1904
sS'6--A######################'
p1905
(I75
S'GTC'
tp1906
sS'CBC6######################'
p1907
(I0
g97
tp1908
sS'A<-6######################'
p1909
(I57
S'TTT'
tp1910
sS'69-@######################'
p1911
(I64
S'CAG'
tp1912
sS'A88A######################'
p1913
(I25
S'GCA'
tp1914
sS'-A@6######################'
p1915
(I71
S'CGC'
tp1916
sS'8<8-######################'
p1917
(I65
S'GGG'
tp1918
sS'<@--######################'
p1919
(I20
S'AGG'
tp1920
sS'CC@C######################'
p1921
(I62
S'TAT'
tp1922
sS'A6-8######################'
p1923
(I51
S'CCT'
tp1924
sS'8BC@######################'
p1925
(I8
S'TGT'
tp1926
sS'@A--######################'
p1927
(I4
S'AAA'
tp1928
sS'A-8-######################'
p1929
(I38
S'CCC'
tp1930
sS'@<-6######################'
p1931
(I3
S'CGA'
tp1932
sS'A86A######################'
p1933
(I28
S'TTT'
tp1934
sS'BCC6######################'
p1935
(I32
S'GGC'
tp1936
sS'-6A-######################'
p1937
(I4
S'GAC'
tp1938
sS'A@9A######################'
p1939
(I16
S'TAC'
tp1940
sS'68AC######################'
p1941
(I40
S'GCG'
tp1942
sS'@-66######################'
p1943
(I57
S'TGC'
tp1944
sS'TCCCNNNNNNNNNNNNNNNNNNNNNN'
p1945
(I9
S'GAC'
tp1946
sS'CC?<######################'
p1947
(I26
S'CCG'
tp1948
sS'-AC6######################'
p1949
(I59
S'TCA'
tp1950
sS'@B9@######################'
p1951
(I18
S'GCG'
tp1952
sS'-<66######################'
p1953
(I66
S'TCG'
tp1954
sS'68A-######################'
p1955
(I50
S'GTA'
tp1956
sS'BC<8######################'
p1957
(I19
S'GGG'
tp1958
sS'A8<-######################'
p1959
(I56
S'GCG'
tp1960
sS'A8@B######################'
p1961
(I8
S'GAT'
tp1962
sS'?CCC######################'
p1963
(I49
S'GGC'
tp1964
sS'A8<A######################'
p1965
(I63
S'TCC'
tp1966
sS'@-<<######################'
p1967
(I71
S'AGG'
tp1968
sS'-8-6######################'
p1969
(I43
S'CGG'
tp1970
sS'<C<@######################'
p1971
(I44
S'TGG'
tp1972
sS'<A<<######################'
p1973
(I49
S'TGG'
tp1974
sS'-8C-######################'
p1975
(I13
S'TAC'
tp1976
sS'--@<######################'
p1977
(I67
S'ATA'
tp1978
sS'AA-<######################'
p1979
(I54
S'CTA'
tp1980
sS'B<-<######################'
p1981
(I29
S'GCC'
tp1982
sS'A96A######################'
p1983
(I22
S'CGC'
tp1984
sS'@C96######################'
p1985
(I66
S'GCA'
tp1986
sS'TACANNNNNNNNNNNNNNNNNNNNNN'
p1987
(I30
S'CGG'
tp1988
sS'B@-A######################'
p1989
(I35
S'ACC'
tp1990
sS'AA-@######################'
p1991
(I4
S'CTC'
tp1992
sS'C8@@######################'
p1993
(I74
S'ACT'
tp1994
sS'@C-@######################'
p1995
(I24
S'TCT'
tp1996
sS'6C9C######################'
p1997
(I27
S'GAG'
tp1998
sS'TATGNNNNNNNNNNNNNNNNNNNNNN'
p1999
(I22
S'AGG'
tp2000
sS'@@@@######################'
p2001
(I48
S'TAC'
tp2002
sS'-6-6######################'
p2003
(I60
S'AGC'
tp2004
sS'<8-6######################'
p2005
(I14
S'GTC'
tp2006
sS'-<<-######################'
p2007
(I72
S'CTA'
tp2008
sS'86-6######################'
p2009
(I37
S'CCG'
tp2010
sS'8B66######################'
p2011
(I52
S'TGT'
tp2012
sS'-8<B######################'
p2013
(I0
g97
tp2014
sS'8AC6######################'
p2015
(I11
S'TCT'
tp2016
sS'A-8@######################'
p2017
(I69
S'CCC'
tp2018
sS'@@<9######################'
p2019
(I30
S'GCA'
tp2020
sS'@CA<######################'
p2021
(I22
S'GGA'
tp2022
sS'6B--######################'
p2023
(I26
S'CGC'
tp2024
sS'88-6######################'
p2025
(I44
S'GGC'
tp2026
sS'@<B6######################'
p2027
(I66
S'TAA'
tp2028
sS'-6A9######################'
p2029
(I25
S'TCG'
tp2030
sS'8-@@######################'
p2031
(I20
S'TGC'
tp2032
sS'A<-@######################'
p2033
(I67
S'GGA'
tp2034
sS'88A6######################'
p2035
(I20
S'GGC'
tp2036
sS'8AC@######################'
p2037
(I70
S'CAA'
tp2038
sS'@CCC######################'
p2039
(I8
S'TTA'
tp2040
sS'BC<-######################'
p2041
(I34
S'ACG'
tp2042
sS'8A@@######################'
p2043
(I0
g97
tp2044
sS'@@-A######################'
p2045
(I2
S'TCT'
tp2046
sS'A-<-######################'
p2047
(I10
S'ACC'
tp2048
sS'-A9A######################'
p2049
(I72
S'GCC'
tp2050
sS'-A-B######################'
p2051
(I18
S'GCA'
tp2052
sS'68-8######################'
p2053
(I43
S'GGC'
tp2054
sS'CCC9######################'
p2055
(I26
S'TTC'
tp2056
sS'-96-######################'
p2057
(I73
S'TTA'
tp2058
sS'B6@-######################'
p2059
(I61
S'CGC'
tp2060
sS'A-86######################'
p2061
(I61
S'GAT'
tp2062
sS'9BC-######################'
p2063
(I43
S'CAC'
tp2064
sS'866A######################'
p2065
(I0
g97
tp2066
sS'AC6-######################'
p2067
(I49
S'TGC'
tp2068
sS'-@@B######################'
p2069
(I16
S'TAC'
tp2070
sS'CGAGNNNNNNNNNNNNNNNNNNNNNN'
p2071
(I35
S'TCC'
tp2072
sS'TCCANNNNNNNNNNNNNNNNNNNNNN'
p2073
(I35
S'TGC'
tp2074
sS'CACC######################'
p2075
(I47
S'GCT'
tp2076
sS'CAAGNNNNNNNNNNNNNNNNNNNNNN'
p2077
(I60
S'GGC'
tp2078
sS'GATANNNNNNNNNNNNNNNNNNNNNN'
p2079
(I51
S'GCC'
tp2080
sS'-@@C######################'
p2081
(I46
S'CTG'
tp2082
sS'6AA9######################'
p2083
(I56
S'CCT'
tp2084
sS'-6AB######################'
p2085
(I46
S'GAG'
tp2086
sS'<<88######################'
p2087
(I44
S'AAT'
tp2088
sS'-B@A######################'
p2089
(I36
S'AGG'
tp2090
sS'--88######################'
p2091
(I10
S'TCC'
tp2092
sS'CCC<######################'
p2093
(I30
S'GGG'
tp2094
sS'B---######################'
p2095
(I16
S'ACT'
tp2096
sS'6<@A######################'
p2097
(I17
S'CTT'
tp2098
sS'88@-######################'
p2099
(I44
S'TAC'
tp2100
sS'C9C9######################'
p2101
(I5
S'GGT'
tp2102
sS'A-6A######################'
p2103
(I6
S'GTG'
tp2104
sS'A@B-######################'
p2105
(I48
S'CAG'
tp2106
sS'-<AC######################'
p2107
(I50
S'TTC'
tp2108
sS'@A8A######################'
p2109
(I17
S'CGC'
tp2110
sS'6B9-######################'
p2111
(I7
S'CCG'
tp2112
sS'6B66######################'
p2113
(I57
S'TCC'
tp2114
sS'-6<6######################'
p2115
(I57
S'CAT'
tp2116
sS'BCC<######################'
p2117
(I9
S'GGG'
tp2118
sS'8<9-######################'
p2119
(I31
S'GTG'
tp2120
sS'9AC-######################'
p2121
(I44
S'CAC'
tp2122
sS'86@-######################'
p2123
(I39
S'CCT'
tp2124
sS'668-######################'
p2125
(I44
S'TGG'
tp2126
sS'@8<-######################'
p2127
(I64
S'GGA'
tp2128
sS'8<@8######################'
p2129
(I55
S'GGG'
tp2130
sS'-66A######################'
p2131
(I68
S'GGT'
tp2132
sS'C@C-######################'
p2133
(I0
g97
tp2134
sS'-C9-######################'
p2135
(I57
S'GGG'
tp2136
sS'6A@-######################'
p2137
(I33
S'CCT'
tp2138
sS'<AC6######################'
p2139
(I13
S'GCC'
tp2140
sS'@@6-######################'
p2141
(I13
S'GGG'
tp2142
sS'AAAGNNNNNNNNNNNNNNNNNNNNNN'
p2143
(I55
S'AGA'
tp2144
sS'-A68######################'
p2145
(I0
g97
tp2146
sS'-8@B######################'
p2147
(I38
S'AAG'
tp2148
sS'-A<<######################'
p2149
(I5
S'TAG'
tp2150
sS'-88C######################'
p2151
(I2
S'TGC'
tp2152
sS'TCACNNNNNNNNNNNNNNNNNNNNNN'
p2153
(I49
S'CTA'
tp2154
sS'8886######################'
p2155
(I16
S'TCC'
tp2156
sS'-A@A######################'
p2157
(I0
g97
tp2158
sS'88A<######################'
p2159
(I61
S'GGA'
tp2160
sS'-86A######################'
p2161
(I69
S'GGC'
tp2162
sS'<A@C######################'
p2163
(I69
S'TGT'
tp2164
sS'-ABB######################'
p2165
(I65
S'TGA'
tp2166
sS'A-AC######################'
p2167
(I46
S'CCG'
tp2168
sS'-8A<######################'
p2169
(I34
S'CCT'
tp2170
sS'CC<<######################'
p2171
(I74
S'CAC'
tp2172
sS'6@<-######################'
p2173
(I43
S'GGA'
tp2174
sS'BC9C######################'
p2175
(I55
S'GTG'
tp2176
sS'GCCCNNNNNNNNNNNNNNNNNNNNNN'
p2177
(I56
S'ACT'
tp2178
sS'-AA-######################'
p2179
(I38
S'AAA'
tp2180
sS'6-8@######################'
p2181
(I66
S'AGG'
tp2182
sS'88@A######################'
p2183
(I74
S'GGA'
tp2184
sS'-68<######################'
p2185
(I19
S'TCC'
tp2186
sS'--A6######################'
p2187
(I46
S'CGT'
tp2188
sS'CB--######################'
p2189
(I69
S'GGC'
tp2190
sS'8<--######################'
p2191
(I66
S'ATC'
tp2192
sS'-@8-######################'
p2193
(I41
S'GAT'
tp2194
sS'--8B######################'
p2195
(I55
S'ATA'
tp2196
sS'@C<6######################'
p2197
(I11
S'CCC'
tp2198
sS'@@<A######################'
p2199
(I54
S'GGC'
tp2200
sS'@B<<######################'
p2201
(I24
S'TGG'
tp2202
sS'6B-<######################'
p2203
(I22
S'GCC'
tp2204
sS'8BBB######################'
p2205
(I37
S'GAG'
tp2206
sS'<C<A######################'
p2207
(I22
S'TTC'
tp2208
sS'<A9-######################'
p2209
(I35
S'TTT'
tp2210
sS'TCTGNNNNNNNNNNNNNNNNNNNNNN'
p2211
(I67
S'GCC'
tp2212
sS'A668######################'
p2213
(I74
S'GGC'
tp2214
sS'6CB6######################'
p2215
(I42
S'ACC'
tp2216
sS'6B<-######################'
p2217
(I41
S'TCG'
tp2218
sS'TCAGNNNNNNNNNNNNNNNNNNNNNN'
p2219
(I11
S'ACT'
tp2220
sS'6-@-######################'
p2221
(I28
S'AGA'
tp2222
sS'8686######################'
p2223
(I53
S'CTC'
tp2224
sS'@@C-######################'
p2225
(I30
S'TGC'
tp2226
sS'6A86######################'
p2227
(I69
S'CGC'
tp2228
sS'AC9@######################'
p2229
(I50
S'CCC'
tp2230
sS'8B<@######################'
p2231
(I55
S'CAG'
tp2232
sS'A8AB######################'
p2233
(I71
S'TGG'
tp2234
sS'A868######################'
p2235
(I56
S'CCG'
tp2236
sS'ACCC######################'
p2237
(I2
S'TCC'
tp2238
sS'AB@9######################'
p2239
(I36
S'ATA'
tp2240
sS'8<A@######################'
p2241
(I14
S'CTC'
tp2242
sS'@C<B######################'
p2243
(I10
S'AGC'
tp2244
sS'A@--######################'
p2245
(I0
g97
tp2246
sS'-8A@######################'
p2247
(I15
S'CTT'
tp2248
sS'-8CC######################'
p2249
(I27
S'GCT'
tp2250
sS'-6--######################'
p2251
(I22
S'GGA'
tp2252
sS'-@A<######################'
p2253
(I33
S'CCC'
tp2254
sS'@C?6######################'
p2255
(I62
S'AGC'
tp2256
sS'6-8-######################'
p2257
(I70
S'ATT'
tp2258
sS'-A@-######################'
p2259
(I67
S'TAT'
tp2260
sS'6<-6######################'
p2261
(I31
S'GCG'
tp2262
sS'A<<A######################'
p2263
(I2
S'TGT'
tp2264
sS'BAB-######################'
p2265
(I61
S'GTT'
tp2266
sS'-<C<######################'
p2267
(I35
S'AGG'
tp2268
sS'AATCNNNNNNNNNNNNNNNNNNNNNN'
p2269
(I60
S'TGC'
tp2270
sS'-<A9######################'
p2271
(I26
S'CTG'
tp2272
sS'8AB-######################'
p2273
(I47
S'CGG'
tp2274
sS'B<<9######################'
p2275
(I70
S'GAG'
tp2276
sS'A@<C######################'
p2277
(I63
S'GTT'
tp2278
sS'-A8@######################'
p2279
(I7
S'CCC'
tp2280
sS'AGTANNNNNNNNNNNNNNNNNNNNNN'
p2281
(I74
S'CAT'
tp2282
sS'@C<-######################'
p2283
(I40
S'GTC'
tp2284
sS'86@8######################'
p2285
(I29
S'CGC'
tp2286
sS'@9-A######################'
p2287
(I60
S'CGG'
tp2288
sS'@6@C######################'
p2289
(I62
S'TCT'
tp2290
sS'AAC8######################'
p2291
(I34
S'GAC'
tp2292
sS'-6<-######################'
p2293
(I14
S'CCG'
tp2294
sS'---<######################'
p2295
(I54
S'CTT'
tp2296
sS'8@6-######################'
p2297
(I47
S'CGA'
tp2298
sS'CC-B######################'
p2299
(I32
S'TCG'
tp2300
sS'-8-A######################'
p2301
(I28
S'CTG'
tp2302
sS'TGACNNNNNNNNNNNNNNNNNNNNNN'
p2303
(I23
S'TAG'
tp2304
sS'8-68######################'
p2305
(I43
S'TGC'
tp2306
sS'-8A6######################'
p2307
(I69
S'CTA'
tp2308
sS'C@@-######################'
p2309
(I60
S'CAC'
tp2310
sS'@C--######################'
p2311
(I64
S'AGT'
tp2312
sS'<<-A######################'
p2313
(I10
S'AGA'
tp2314
sS'68C@######################'
p2315
(I72
S'AAG'
tp2316
sS'A--A######################'
p2317
(I9
S'CTG'
tp2318
sS'@C@C######################'
p2319
(I30
S'TCG'
tp2320
sS'A<9A######################'
p2321
(I48
S'ACA'
tp2322
sS'CC@9######################'
p2323
(I62
S'CCG'
tp2324
sS'A6@9######################'
p2325
(I5
S'AGG'
tp2326
sS'AB86######################'
p2327
(I21
S'CAA'
tp2328
sS'6@<8######################'
p2329
(I66
S'GTT'
tp2330
sS'6BC-######################'
p2331
(I50
S'GGG'
tp2332
sS'-B<<######################'
p2333
(I40
S'AGC'
tp2334
sS'8-AB######################'
p2335
(I54
S'GAG'
tp2336
sS'C<@@######################'
p2337
(I46
S'AGC'
tp2338
sS'9ACC######################'
p2339
(I48
S'GGT'
tp2340
sS'CCCB######################'
p2341
(I44
S'AAG'
tp2342
sS'6@-9######################'
p2343
(I67
S'GCG'
tp2344
sS'A8--######################'
p2345
(I30
S'TCC'
tp2346
sS'-A9-######################'
p2347
(I37
S'CTA'
tp2348
sS'8<9@######################'
p2349
(I48
S'GGA'
tp2350
sS'<CA6######################'
p2351
(I0
g97
tp2352
sS'-B96######################'
p2353
(I30
S'AAC'
tp2354
sS'<8-@######################'
p2355
(I43
S'GGA'
tp2356
sS'6<98######################'
p2357
(I62
S'ACT'
tp2358
sS'<A<-######################'
p2359
(I50
S'GAG'
tp2360
sS'AA-B######################'
p2361
(I13
S'AGA'
tp2362
sS'86A6######################'
p2363
(I4
S'GAC'
tp2364
sS'<A-@######################'
p2365
(I73
S'CGG'
tp2366
sS'@CC-######################'
p2367
(I63
S'TCG'
tp2368
sS'8AC8######################'
p2369
(I14
S'AAT'
tp2370
sS'6@68######################'
p2371
(I42
S'GAG'
tp2372
sS'8ACC######################'
p2373
(I72
S'CAT'
tp2374
sS'-A86######################'
p2375
(I46
S'TAC'
tp2376
sS'6<@-######################'
p2377
(I35
S'ACC'
tp2378
sS'A9<-######################'
p2379
(I14
S'GAA'
tp2380
sS'ACC6######################'
p2381
(I25
S'AGC'
tp2382
sS'C@@@######################'
p2383
(I71
S'GAT'
tp2384
sS'-AC8######################'
p2385
(I61
S'TTT'
tp2386
sS'-8<@######################'
p2387
(I11
S'GTG'
tp2388
sS'-@-6######################'
p2389
(I0
g97
tp2390
sS'<C-@######################'
p2391
(I49
S'CCC'
tp2392
sS'8@@C######################'
p2393
(I60
S'TTC'
tp2394
sS'-BA-######################'
p2395
(I20
S'TTA'
tp2396
sS'6-6A######################'
p2397
(I49
S'TGC'
tp2398
sS'-<<<######################'
p2399
(I65
S'TGG'
tp2400
sS'A<@A######################'
p2401
(I41
S'GCC'
tp2402
sS'ACC9######################'
p2403
(I15
S'GGC'
tp2404
sS'-A<C######################'
p2405
(I9
S'TTA'
tp2406
sS'<A-6######################'
p2407
(I22
S'GGT'
tp2408
sS'-<C-######################'
p2409
(I30
S'GAA'
tp2410
sS'-<--######################'
p2411
(I49
S'TGT'
tp2412
sS'6@@C######################'
p2413
(I41
S'CTG'
tp2414
sS'8-A6######################'
p2415
(I4
S'AAA'
tp2416
sS'6-A9######################'
p2417
(I28
S'TGA'
tp2418
sS'GGCCNNNNNNNNNNNNNNNNNNNNNN'
p2419
(I45
S'GAC'
tp2420
sS'8A@6######################'
p2421
(I12
S'ATC'
tp2422
sS'@B@-######################'
p2423
(I76
S'GGC'
tp2424
sS'@88@######################'
p2425
(I61
S'ACG'
tp2426
sS'@9A<######################'
p2427
(I28
S'AAG'
tp2428
sS'A6A<######################'
p2429
(I63
S'AGG'
tp2430
sS'@9<9######################'
p2431
(I60
S'GCT'
tp2432
sS'A--6######################'
p2433
(I20
S'GGA'
tp2434
sS'66--######################'
p2435
(I61
S'CCC'
tp2436
sS'8B6@######################'
p2437
(I56
S'GGT'
tp2438
sS'@8@A######################'
p2439
(I59
S'GCT'
tp2440
sS'AC--######################'
p2441
(I71
S'GAG'
tp2442
sS'-A-8######################'
p2443
(I26
S'GGT'
tp2444
sS'C<<B######################'
p2445
(I72
S'CCC'
tp2446
sS'8B8-######################'
p2447
(I19
S'AGA'
tp2448
sS'A-68######################'
p2449
(I30
S'TAA'
tp2450
sS'-6A<######################'
p2451
(I63
S'ATC'
tp2452
sS'6-6-######################'
p2453
(I20
S'GCC'
tp2454
sS'-@@<######################'
p2455
(I0
g97
tp2456
sS'-8@6######################'
p2457
(I44
S'CTT'
tp2458
sS'BC-8######################'
p2459
(I73
S'TTG'
tp2460
sS'A@@<######################'
p2461
(I48
S'AGT'
tp2462
sS'8C-6######################'
p2463
(I61
S'ACG'
tp2464
sS'6<86######################'
p2465
(I10
S'GTT'
tp2466
sS'6A96######################'
p2467
(I33
S'ACC'
tp2468
sS'-6A6######################'
p2469
(I0
g97
tp2470
sS'-A6A######################'
p2471
(I34
S'GCC'
tp2472
sS'8@9-######################'
p2473
(I43
S'TAC'
tp2474
sS'CGCANNNNNNNNNNNNNNNNNNNNNN'
p2475
(I41
S'CCC'
tp2476
sS'AAAANNNNNNNNNNNNNNNNNNNNNN'
p2477
(I20
S'GAT'
tp2478
sS'CCBC######################'
p2479
(I75
S'TCC'
tp2480
sS'8-8A######################'
p2481
(I0
g97
tp2482
sS'CA@@######################'
p2483
(I25
S'GGC'
tp2484
sS'8-6A######################'
p2485
(I48
S'AAA'
tp2486
sS'6-88######################'
p2487
(I28
S'GTT'
tp2488
sS'A<99######################'
p2489
(I28
S'GCG'
tp2490
sS'@B@@######################'
p2491
(I32
S'GCT'
tp2492
sS'-868######################'
p2493
(I52
S'ATG'
tp2494
sS'6<A@######################'
p2495
(I62
S'CCC'
tp2496
sS'<C<<######################'
p2497
(I3
S'GAG'
tp2498
sS'8-8@######################'
p2499
(I20
S'CAT'
tp2500
sS'-B<9######################'
p2501
(I51
S'CTC'
tp2502
sS'A8B-######################'
p2503
(I28
S'ATT'
tp2504
sS'ACAANNNNNNNNNNNNNNNNNNNNNN'
p2505
(I65
S'GGT'
tp2506
sS'@@--######################'
p2507
(I49
S'GCC'
tp2508
sS'AA9-######################'
p2509
(I56
S'TTC'
tp2510
sS'<ACC######################'
p2511
(I28
S'GCT'
tp2512
sS'C-AB######################'
p2513
(I29
S'CGT'
tp2514
sS'@-8@######################'
p2515
(I36
S'GCC'
tp2516
sS'8@66######################'
p2517
(I29
S'CAT'
tp2518
sS'@AA6######################'
p2519
(I68
S'TCT'
tp2520
sS'6-6@######################'
p2521
(I6
S'GCA'
tp2522
sS'68<8######################'
p2523
(I62
S'AAT'
tp2524
sS'8---######################'
p2525
(I32
S'GGT'
tp2526
sS'@-8A######################'
p2527
(I72
S'CAG'
tp2528
sS'A66@######################'
p2529
(I19
S'CCC'
tp2530
sS'AA-8######################'
p2531
(I35
S'TTC'
tp2532
sS'<66@######################'
p2533
(I24
S'CCC'
tp2534
sS'688@######################'
p2535
(I47
S'GGG'
tp2536
sS'@6--######################'
p2537
(I72
S'TGC'
tp2538
sS'-@-<######################'
p2539
(I61
S'TGC'
tp2540
sS'ACC<######################'
p2541
(I15
S'GGG'
tp2542
sS'8A88######################'
p2543
(I75
S'TCG'
tp2544
sS'A<<-######################'
p2545
(I55
S'TAA'
tp2546
sS'BCC9######################'
p2547
(I62
S'GCT'
tp2548
sS'A8@6######################'
p2549
(I21
S'GGA'
tp2550
sS'-@<9######################'
p2551
(I65
S'CCA'
tp2552
sS'BA-@######################'
p2553
(I42
S'GGC'
tp2554
sS'868B######################'
p2555
(I13
S'GCA'
tp2556
sS'CCC-######################'
p2557
(I75
S'CCT'
tp2558
sS'@866######################'
p2559
(I71
S'GCC'
tp2560
sS'BC@-######################'
p2561
(I44
S'CGT'
tp2562
sS'8@--######################'
p2563
(I2
S'GGG'
tp2564
sS'6-A<######################'
p2565
(I6
S'TGT'
tp2566
sS'6@--######################'
p2567
(I9
S'TAA'
tp2568
sS'-B@@######################'
p2569
(I42
S'TTG'
tp2570
sS'CACB######################'
p2571
(I17
S'CGC'
tp2572
sS'<AB9######################'
p2573
(I40
S'CTT'
tp2574
sS'AB<A######################'
p2575
(I34
S'AGC'
tp2576
sS'A6@@######################'
p2577
(I41
S'GGG'
tp2578
sS'@ACA######################'
p2579
(I65
S'CTT'
tp2580
sS'888@######################'
p2581
(I66
S'ACG'
tp2582
sS'@B9-######################'
p2583
(I0
g97
tp2584
sS'6@8@######################'
p2585
(I56
S'GTA'
tp2586
sS'886-######################'
p2587
(I46
S'GCT'
tp2588
sS'BC86######################'
p2589
(I8
S'CGA'
tp2590
sS'8A-8######################'
p2591
(I18
S'CGC'
tp2592
sS'B<8A######################'
p2593
(I4
S'GTG'
tp2594
sS'@B-8######################'
p2595
(I39
S'CAC'
tp2596
sS'8C9B######################'
p2597
(I38
S'GTC'
tp2598
sS'A8A-######################'
p2599
(I3
S'CAC'
tp2600
sS'BB9<######################'
p2601
(I8
S'GCG'
tp2602
sS'CC9@######################'
p2603
(I40
S'TAC'
tp2604
sS'-AC9######################'
p2605
(I43
S'CAC'
tp2606
sS'GAAGNNNNNNNNNNNNNNNNNNNNNN'
p2607
(I35
S'TGA'
tp2608
sS'-8<-######################'
p2609
(I26
S'ATA'
tp2610
sS'-9--######################'
p2611
(I64
S'TTG'
tp2612
sS'AA66######################'
p2613
(I41
S'TCA'
tp2614
sS'AC86######################'
p2615
(I17
S'GTG'
tp2616
sS'6AAA######################'
p2617
(I35
S'GGA'
tp2618
sS'6AB-######################'
p2619
(I36
S'TAT'
tp2620
sS'B@--######################'
p2621
(I9
S'GGG'
tp2622
sS'CC@@######################'
p2623
(I25
S'ATT'
tp2624
sS'-68A######################'
p2625
(I62
S'GGC'
tp2626
sS'A<A8######################'
p2627
(I54
S'TTG'
tp2628
sS'C9@9######################'
p2629
(I43
S'TTC'
tp2630
sS'-A9@######################'
p2631
(I2
S'TCC'
tp2632
sS'A-6@######################'
p2633
(I31
S'AGG'
tp2634
sS'A66-######################'
p2635
(I49
S'TGT'
tp2636
sS'@C<@######################'
p2637
(I25
S'CCC'
tp2638
sS'<@-8######################'
p2639
(I18
S'CAC'
tp2640
sS'8C9-######################'
p2641
(I31
S'TCC'
tp2642
sS'6AC6######################'
p2643
(I15
S'CTC'
tp2644
sS'A8@<######################'
p2645
(I0
g97
tp2646
sS'AB6-######################'
p2647
(I45
S'ATC'
tp2648
sS'8-8-######################'
p2649
(I12
S'CCA'
tp2650
sS'@68-######################'
p2651
(I17
S'ACG'
tp2652
sS'A@-8######################'
p2653
(I59
S'ACG'
tp2654
sS'-BB-######################'
p2655
(I4
S'CCA'
tp2656
sS'<<CB######################'
p2657
(I51
S'CTG'
tp2658
sS'AB-A######################'
p2659
(I63
S'ACC'
tp2660
sS'@B66######################'
p2661
(I23
S'CCA'
tp2662
sS'@@@C######################'
p2663
(I34
S'CAC'
tp2664
sS'BACC######################'
p2665
(I5
S'ATG'
tp2666
sS'-8@C######################'
p2667
(I12
S'CCT'
tp2668
sS'<CCC######################'
p2669
(I75
S'GAA'
tp2670
sS'CCAGNNNNNNNNNNNNNNNNNNNNNN'
p2671
(I33
S'ACG'
tp2672
sS'6A6A######################'
p2673
(I68
S'GGC'
tp2674
sS'<@88######################'
p2675
(I38
S'GCA'
tp2676
sS'-666######################'
p2677
(I47
S'TGG'
tp2678
sS'A8AC######################'
p2679
(I10
S'GCG'
tp2680
sS'69-6######################'
p2681
(I65
S'GAC'
tp2682
sS'A6A6######################'
p2683
(I28
S'TGC'
tp2684
sS'-8A9######################'
p2685
(I0
g97
tp2686
sS'-88<######################'
p2687
(I58
S'TCA'
tp2688
sS'-@-8######################'
p2689
(I7
S'AGT'
tp2690
sS'A9--######################'
p2691
(I42
S'CCC'
tp2692
sS'8B<C######################'
p2693
(I18
S'TTT'
tp2694
sS'-8-8######################'
p2695
(I75
S'TCT'
tp2696
sS'B6<B######################'
p2697
(I34
S'TAG'
tp2698
sS'TCCGNNNNNNNNNNNNNNNNNNNNNN'
p2699
(I23
S'AAC'
tp2700
sS'-B-<######################'
p2701
(I75
S'GCG'
tp2702
sS'@A<C######################'
p2703
(I24
S'AAG'
tp2704
sS'@C6A######################'
p2705
(I11
S'ACC'
tp2706
sS'AATANNNNNNNNNNNNNNNNNNNNNN'
p2707
(I34
S'CCC'
tp2708
sS'-6AA######################'
p2709
(I68
S'GAT'
tp2710
sS'@A6-######################'
p2711
(I29
S'GAC'
tp2712
sS'-6@-######################'
p2713
(I24
S'CAG'
tp2714
sS'6A9B######################'
p2715
(I74
S'TGT'
tp2716
sS'<C9<######################'
p2717
(I56
S'TCA'
tp2718
sS'A<--######################'
p2719
(I14
S'CTA'
tp2720
sS'8666######################'
p2721
(I22
S'TTC'
tp2722
sS'AB6@######################'
p2723
(I8
S'GGT'
tp2724
sS'ACACNNNNNNNNNNNNNNNNNNNNNN'
p2725
(I51
S'CTG'
tp2726
sS'8@C9######################'
p2727
(I73
S'TCG'
tp2728
sS'CC68######################'
p2729
(I37
S'CGC'
tp2730
sS'B<C9######################'
p2731
(I44
S'GGG'
tp2732
sS'-ACC######################'
p2733
(I27
S'TTC'
tp2734
sS'8<B8######################'
p2735
(I54
S'TGC'
tp2736
sS'8-88######################'
p2737
(I28
S'TCA'
tp2738
sS'9C99######################'
p2739
(I22
S'GAG'
tp2740
sS'BC-6######################'
p2741
(I40
S'TTA'
tp2742
sS'6@-6######################'
p2743
(I19
S'GAA'
tp2744
sS'<C<6######################'
p2745
(I70
S'TTA'
tp2746
sS'B-@C######################'
p2747
(I33
S'ATT'
tp2748
sS'-<99######################'
p2749
(I30
S'GCC'
tp2750
sS'8@-8######################'
p2751
(I28
S'TGG'
tp2752
sS'C-@<######################'
p2753
(I14
S'ACG'
tp2754
sS'-AAC######################'
p2755
(I36
S'CAC'
tp2756
sS'BC@8######################'
p2757
(I30
S'CGC'
tp2758
sS'BC<A######################'
p2759
(I46
S'AGC'
tp2760
sS'@6-A######################'
p2761
(I17
S'AGA'
tp2762
sS'6BCC######################'
p2763
(I7
S'CAC'
tp2764
sS'A@C-######################'
p2765
(I41
S'GTG'
tp2766
sS'-BC@######################'
p2767
(I10
S'AAC'
tp2768
sS'8BC-######################'
p2769
(I61
S'CAC'
tp2770
sS'CC?@######################'
p2771
(I69
S'AGC'
tp2772
sS'AA6B######################'
p2773
(I18
S'CAT'
tp2774
sS'A88@######################'
p2775
(I46
S'TTC'
tp2776
sS'8BB-######################'
p2777
(I33
S'CTC'
tp2778
sS'--8C######################'
p2779
(I74
S'TCC'
tp2780
sS'-8--######################'
p2781
(I63
S'CGG'
tp2782
sS'A<CC######################'
p2783
(I4
S'TGG'
tp2784
sS'-6<@######################'
p2785
(I9
S'AAA'
tp2786
sS'8-6@######################'
p2787
(I3
S'GAT'
tp2788
sS'A<6B######################'
p2789
(I56
S'CAG'
tp2790
sS'8@<-######################'
p2791
(I3
S'GGG'
tp2792
sS'BA8@######################'
p2793
(I8
S'CGT'
tp2794
sS'66A-######################'
p2795
(I72
S'TCG'
tp2796
sS'8--A######################'
p2797
(I50
S'GTG'
tp2798
sS'A88C######################'
p2799
(I32
S'TAC'
tp2800
sS'A@-<######################'
p2801
(I37
S'CCA'
tp2802
sS'@CC<######################'
p2803
(I22
S'GCC'
tp2804
sS'AC9-######################'
p2805
(I6
S'AGC'
tp2806
sS'AAA-######################'
p2807
(I22
S'TGG'
tp2808
sS'AA@<######################'
p2809
(I46
S'TCT'
tp2810
sS'-8AC######################'
p2811
(I73
S'ATA'
tp2812
sS'@9@C######################'
p2813
(I74
S'TGT'
tp2814
sS'-A-6######################'
p2815
(I31
S'ACA'
tp2816
sS'-@@6######################'
p2817
(I34
S'TTA'
tp2818
sS'AA<-######################'
p2819
(I20
S'CAA'
tp2820
sS'9A-8######################'
p2821
(I34
S'CCA'
tp2822
sS'6A-A######################'
p2823
(I0
g97
tp2824
sS'@8@6######################'
p2825
(I5
S'ACT'
tp2826
sS'@@BC######################'
p2827
(I48
S'GGG'
tp2828
sS'@86@######################'
p2829
(I17
S'CGC'
tp2830
sS'8B<8######################'
p2831
(I41
S'ACG'
tp2832
sS'<C9@######################'
p2833
(I24
S'ACA'
tp2834
sS'@A9<######################'
p2835
(I32
S'CGC'
tp2836
sS'@6-6######################'
p2837
(I23
S'GCT'
tp2838
sS'CCACNNNNNNNNNNNNNNNNNNNNNN'
p2839
(I56
S'AAT'
tp2840
sS'@C-B######################'
p2841
(I55
S'TGA'
tp2842
sS'688<######################'
p2843
(I68
S'TGC'
tp2844
sS'-68-######################'
p2845
(I74
S'TGC'
tp2846
sS'-9-6######################'
p2847
(I5
S'CTG'
tp2848
sS'686-######################'
p2849
(I21
S'GGT'
tp2850
sS'A9-A######################'
p2851
(I39
S'GGG'
tp2852
sS'68-@######################'
p2853
(I0
g97
tp2854
sS'A<9-######################'
p2855
(I73
S'ATG'
tp2856
sS'-B-A######################'
p2857
(I70
S'GCC'
tp2858
sS'AB-@######################'
p2859
(I46
S'GGT'
tp2860
sS'6A-<######################'
p2861
(I34
S'GCT'
tp2862
sS'9@-@######################'
p2863
(I49
S'TCC'
tp2864
sS'GCTANNNNNNNNNNNNNNNNNNNNNN'
p2865
(I18
S'AGA'
tp2866
sS'@ACC######################'
p2867
(I9
S'AAC'
tp2868
sS'<@@-######################'
p2869
(I5
S'GCG'
tp2870
sS'@C-<######################'
p2871
(I9
S'GGT'
tp2872
sS'CACANNNNNNNNNNNNNNNNNNNNNN'
p2873
(I14
S'ATT'
tp2874
sS'CCC@######################'
p2875
(I23
S'CAT'
tp2876
sS'6A66######################'
p2877
(I37
S'CCG'
tp2878
sS'8A8A######################'
p2879
(I23
S'GCC'
tp2880
sS'@@9-######################'
p2881
(I30
S'CTC'
tp2882
sS'@CA-######################'
p2883
(I43
S'CCC'
tp2884
sS'@<-@######################'
p2885
(I23
S'GGC'
tp2886
sS'@B<-######################'
p2887
(I25
S'ACT'
tp2888
sS'8@<8######################'
p2889
(I5
S'ATA'
tp2890
sS'--6@######################'
p2891
(I70
S'GCC'
tp2892
sS'8B9C######################'
p2893
(I64
S'GCA'
tp2894
sS'-@<6######################'
p2895
(I18
S'ATT'
tp2896
sS'8C-A######################'
p2897
(I61
S'ACA'
tp2898
sS'@-@<######################'
p2899
(I11
S'ACT'
tp2900
sS'8A@-######################'
p2901
(I71
S'AGA'
tp2902
sS'68A9######################'
p2903
(I41
S'ACG'
tp2904
sS'--8-######################'
p2905
(I56
S'CAA'
tp2906
sS'68-A######################'
p2907
(I31
S'GGC'
tp2908
sS'-C@-######################'
p2909
(I8
S'TCC'
tp2910
sS'88--######################'
p2911
(I6
S'TAA'
tp2912
sS'8AC-######################'
p2913
(I72
S'AGT'
tp2914
sS'-89-######################'
p2915
(I14
S'TAC'
tp2916
sS'A@-A######################'
p2917
(I42
S'CTG'
tp2918
sS'@@C9######################'
p2919
(I4
S'CTA'
tp2920
sS'B@-@######################'
p2921
(I64
S'CAC'
tp2922
sS'@A@@######################'
p2923
(I62
S'GGC'
tp2924
s.